                                      1 ;--------------------------------------------------------
                                      2 ; File Created by SDCC : free open source ANSI-C Compiler
                                      3 ; Version 4.1.0 #12072 (MINGW64)
                                      4 ;--------------------------------------------------------
                                      5 	.module main
                                      6 	.optsdcc -mstm8
                                      7 	
                                      8 ;--------------------------------------------------------
                                      9 ; Public variables in this module
                                     10 ;--------------------------------------------------------
                                     11 	.globl _main
                                     12 	.globl _setup
                                     13 	.globl _delay_ms
                                     14 	.globl _sprintf
                                     15 	.globl _lcd_puts
                                     16 	.globl _lcd_gotoxy
                                     17 	.globl _lcd_init
                                     18 	.globl _ADC2_Startup_Wait
                                     19 	.globl _ADC2_AlignConfig
                                     20 	.globl _ADC2_Select_Channel
                                     21 	.globl _ADC_get
                                     22 	.globl _milis
                                     23 	.globl _init_milis
                                     24 	.globl _GPIO_ReadInputPin
                                     25 	.globl _GPIO_WriteLow
                                     26 	.globl _GPIO_WriteHigh
                                     27 	.globl _GPIO_Init
                                     28 	.globl _CLK_HSIPrescalerConfig
                                     29 	.globl _ADC2_SchmittTriggerConfig
                                     30 	.globl _ADC2_PrescalerConfig
                                     31 	.globl _ADC2_Cmd
                                     32 ;--------------------------------------------------------
                                     33 ; ram data
                                     34 ;--------------------------------------------------------
                                     35 	.area DATA
                                     36 ;--------------------------------------------------------
                                     37 ; ram data
                                     38 ;--------------------------------------------------------
                                     39 	.area INITIALIZED
                                     40 ;--------------------------------------------------------
                                     41 ; Stack segment in internal ram 
                                     42 ;--------------------------------------------------------
                                     43 	.area	SSEG
      000005                         44 __start__stack:
      000005                         45 	.ds	1
                                     46 
                                     47 ;--------------------------------------------------------
                                     48 ; absolute external ram data
                                     49 ;--------------------------------------------------------
                                     50 	.area DABS (ABS)
                                     51 
                                     52 ; default segment ordering for linker
                                     53 	.area HOME
                                     54 	.area GSINIT
                                     55 	.area GSFINAL
                                     56 	.area CONST
                                     57 	.area INITIALIZER
                                     58 	.area CODE
                                     59 
                                     60 ;--------------------------------------------------------
                                     61 ; interrupt vector 
                                     62 ;--------------------------------------------------------
                                     63 	.area HOME
      008000                         64 __interrupt_vect:
      008000 82 00 80 6F             65 	int s_GSINIT ; reset
      008004 82 00 8D EE             66 	int _TRAP_IRQHandler ; trap
      008008 82 00 8D EF             67 	int _TLI_IRQHandler ; int0
      00800C 82 00 8D F0             68 	int _AWU_IRQHandler ; int1
      008010 82 00 8D F1             69 	int _CLK_IRQHandler ; int2
      008014 82 00 8D F2             70 	int _EXTI_PORTA_IRQHandler ; int3
      008018 82 00 8D F3             71 	int _EXTI_PORTB_IRQHandler ; int4
      00801C 82 00 8D F4             72 	int _EXTI_PORTC_IRQHandler ; int5
      008020 82 00 8D F5             73 	int _EXTI_PORTD_IRQHandler ; int6
      008024 82 00 8D F6             74 	int _EXTI_PORTE_IRQHandler ; int7
      008028 82 00 8D F7             75 	int _CAN_RX_IRQHandler ; int8
      00802C 82 00 8D F8             76 	int _CAN_TX_IRQHandler ; int9
      008030 82 00 8D F9             77 	int _SPI_IRQHandler ; int10
      008034 82 00 8D FA             78 	int _TIM1_UPD_OVF_TRG_BRK_IRQHandler ; int11
      008038 82 00 8D FB             79 	int _TIM1_CAP_COM_IRQHandler ; int12
      00803C 82 00 8D FC             80 	int _TIM2_UPD_OVF_BRK_IRQHandler ; int13
      008040 82 00 8D FD             81 	int _TIM2_CAP_COM_IRQHandler ; int14
      008044 82 00 8D FE             82 	int _TIM3_UPD_OVF_BRK_IRQHandler ; int15
      008048 82 00 8D FF             83 	int _TIM3_CAP_COM_IRQHandler ; int16
      00804C 82 00 8E 00             84 	int _UART1_TX_IRQHandler ; int17
      008050 82 00 8E 01             85 	int _UART1_RX_IRQHandler ; int18
      008054 82 00 8E 02             86 	int _I2C_IRQHandler ; int19
      008058 82 00 8E 03             87 	int _UART3_TX_IRQHandler ; int20
      00805C 82 00 8E 04             88 	int _UART3_RX_IRQHandler ; int21
      008060 82 00 8E 05             89 	int _ADC2_IRQHandler ; int22
      008064 82 00 88 39             90 	int _TIM4_UPD_OVF_IRQHandler ; int23
      008068 82 00 8E 06             91 	int _EEPROM_EEC_IRQHandler ; int24
                                     92 ;--------------------------------------------------------
                                     93 ; global & static initialisations
                                     94 ;--------------------------------------------------------
                                     95 	.area HOME
                                     96 	.area GSINIT
                                     97 	.area GSFINAL
                                     98 	.area GSINIT
      00806F                         99 __sdcc_init_data:
                                    100 ; stm8_genXINIT() start
      00806F AE 00 00         [ 2]  101 	ldw x, #l_DATA
      008072 27 07            [ 1]  102 	jreq	00002$
      008074                        103 00001$:
      008074 72 4F 00 00      [ 1]  104 	clr (s_DATA - 1, x)
      008078 5A               [ 2]  105 	decw x
      008079 26 F9            [ 1]  106 	jrne	00001$
      00807B                        107 00002$:
      00807B AE 00 04         [ 2]  108 	ldw	x, #l_INITIALIZER
      00807E 27 09            [ 1]  109 	jreq	00004$
      008080                        110 00003$:
      008080 D6 80 F8         [ 1]  111 	ld	a, (s_INITIALIZER - 1, x)
      008083 D7 00 00         [ 1]  112 	ld	(s_INITIALIZED - 1, x), a
      008086 5A               [ 2]  113 	decw	x
      008087 26 F7            [ 1]  114 	jrne	00003$
      008089                        115 00004$:
                                    116 ; stm8_genXINIT() end
                                    117 	.area GSFINAL
      008089 CC 80 6C         [ 2]  118 	jp	__sdcc_program_startup
                                    119 ;--------------------------------------------------------
                                    120 ; Home
                                    121 ;--------------------------------------------------------
                                    122 	.area HOME
                                    123 	.area HOME
      00806C                        124 __sdcc_program_startup:
      00806C CC 81 DF         [ 2]  125 	jp	_main
                                    126 ;	return from main will return to caller
                                    127 ;--------------------------------------------------------
                                    128 ; code
                                    129 ;--------------------------------------------------------
                                    130 	.area CODE
                           000000   131 	Smain$_delay_cycl$0 ==.
                                    132 ;	inc/delay.h: 14: static @inline void _delay_cycl( unsigned short __ticks )
                                    133 ; genLabel
                                    134 ;	-----------------------------------------
                                    135 ;	 function _delay_cycl
                                    136 ;	-----------------------------------------
                                    137 ;	Register assignment is optimal.
                                    138 ;	Stack space usage: 0 bytes.
      0080FD                        139 __delay_cycl:
                           000000   140 	Smain$_delay_cycl$1 ==.
                           000000   141 	Smain$_delay_cycl$2 ==.
                                    142 ;	inc/delay.h: 25: __asm__("nop\n nop\n"); 
                                    143 ;	genInline
      0080FD 9D               [ 1]  144 	nop
      0080FE 9D               [ 1]  145 	nop
                           000002   146 	Smain$_delay_cycl$3 ==.
                                    147 ;	inc/delay.h: 26: do { 		// ASM: ldw X, #tick; lab$: decw X; tnzw X; jrne lab$
                                    148 ; genAssign
      0080FF 1E 03            [ 2]  149 	ldw	x, (0x03, sp)
                                    150 ; genLabel
      008101                        151 00101$:
                           000004   152 	Smain$_delay_cycl$4 ==.
                           000004   153 	Smain$_delay_cycl$5 ==.
                                    154 ;	inc/delay.h: 27: __ticks--;//      2c;                 1c;     2c    ; 1/2c   
                                    155 ; genMinus
      008101 5A               [ 2]  156 	decw	x
                           000005   157 	Smain$_delay_cycl$6 ==.
                           000005   158 	Smain$_delay_cycl$7 ==.
                                    159 ;	inc/delay.h: 28: } while ( __ticks );
                                    160 ; genIfx
      008102 5D               [ 2]  161 	tnzw	x
      008103 27 03            [ 1]  162 	jreq	00117$
      008105 CC 81 01         [ 2]  163 	jp	00101$
      008108                        164 00117$:
                           00000B   165 	Smain$_delay_cycl$8 ==.
                                    166 ;	inc/delay.h: 29: __asm__("nop\n");
                                    167 ;	genInline
      008108 9D               [ 1]  168 	nop
                                    169 ; genLabel
      008109                        170 00104$:
                           00000C   171 	Smain$_delay_cycl$9 ==.
                                    172 ;	inc/delay.h: 39: }
                                    173 ; genEndFunction
                           00000C   174 	Smain$_delay_cycl$10 ==.
                           00000C   175 	XFmain$_delay_cycl$0$0 ==.
      008109 81               [ 4]  176 	ret
                           00000D   177 	Smain$_delay_cycl$11 ==.
                           00000D   178 	Smain$_delay_us$12 ==.
                                    179 ;	inc/delay.h: 41: static @inline void _delay_us( const unsigned short __us ){
                                    180 ; genLabel
                                    181 ;	-----------------------------------------
                                    182 ;	 function _delay_us
                                    183 ;	-----------------------------------------
                                    184 ;	Register assignment might be sub-optimal.
                                    185 ;	Stack space usage: 0 bytes.
      00810A                        186 __delay_us:
                           00000D   187 	Smain$_delay_us$13 ==.
                           00000D   188 	Smain$_delay_us$14 ==.
                                    189 ;	inc/delay.h: 42: _delay_cycl( (unsigned short)( T_COUNT(__us) ));
                                    190 ; genCast
                                    191 ; genAssign
      00810A 16 03            [ 2]  192 	ldw	y, (0x03, sp)
      00810C 5F               [ 1]  193 	clrw	x
                                    194 ; genIPush
      00810D 90 89            [ 2]  195 	pushw	y
                           000012   196 	Smain$_delay_us$15 ==.
      00810F 89               [ 2]  197 	pushw	x
                           000013   198 	Smain$_delay_us$16 ==.
                                    199 ; genIPush
      008110 4B 00            [ 1]  200 	push	#0x00
                           000015   201 	Smain$_delay_us$17 ==.
      008112 4B 24            [ 1]  202 	push	#0x24
                           000017   203 	Smain$_delay_us$18 ==.
      008114 4B F4            [ 1]  204 	push	#0xf4
                           000019   205 	Smain$_delay_us$19 ==.
      008116 4B 00            [ 1]  206 	push	#0x00
                           00001B   207 	Smain$_delay_us$20 ==.
                                    208 ; genCall
      008118 CD A6 1C         [ 4]  209 	call	__mullong
      00811B 5B 08            [ 2]  210 	addw	sp, #8
                           000020   211 	Smain$_delay_us$21 ==.
                           000020   212 	Smain$_delay_us$22 ==.
                                    213 ; genCast
                                    214 ; genAssign
                                    215 ; genIPush
      00811D 4B 40            [ 1]  216 	push	#0x40
                           000022   217 	Smain$_delay_us$23 ==.
      00811F 4B 42            [ 1]  218 	push	#0x42
                           000024   219 	Smain$_delay_us$24 ==.
      008121 4B 0F            [ 1]  220 	push	#0x0f
                           000026   221 	Smain$_delay_us$25 ==.
      008123 4B 00            [ 1]  222 	push	#0x00
                           000028   223 	Smain$_delay_us$26 ==.
                                    224 ; genIPush
      008125 89               [ 2]  225 	pushw	x
                           000029   226 	Smain$_delay_us$27 ==.
      008126 90 89            [ 2]  227 	pushw	y
                           00002B   228 	Smain$_delay_us$28 ==.
                                    229 ; genCall
      008128 CD A5 C2         [ 4]  230 	call	__divulong
      00812B 5B 08            [ 2]  231 	addw	sp, #8
                           000030   232 	Smain$_delay_us$29 ==.
                           000030   233 	Smain$_delay_us$30 ==.
                                    234 ; genRightShiftLiteral
      00812D 90 54            [ 2]  235 	srlw	y
      00812F 56               [ 2]  236 	rrcw	x
      008130 90 54            [ 2]  237 	srlw	y
      008132 56               [ 2]  238 	rrcw	x
      008133 90 54            [ 2]  239 	srlw	y
      008135 56               [ 2]  240 	rrcw	x
                                    241 ; genCast
                                    242 ; genAssign
                           000039   243 	Smain$_delay_us$31 ==.
                                    244 ; genPlus
      008136 5C               [ 1]  245 	incw	x
                                    246 ; genAssign
                                    247 ; genAssign
                           00003A   248 	Smain$_delay_us$32 ==.
                                    249 ; genAssign
                           00003A   250 	Smain$_delay_us$33 ==.
                                    251 ;	inc/delay.h: 25: __asm__("nop\n nop\n"); 
                                    252 ;	genInline
      008137 9D               [ 1]  253 	nop
      008138 9D               [ 1]  254 	nop
                           00003C   255 	Smain$_delay_us$34 ==.
                           00003C   256 	Smain$_delay_us$35 ==.
                                    257 ;	inc/delay.h: 26: do { 		// ASM: ldw X, #tick; lab$: decw X; tnzw X; jrne lab$
                                    258 ; genAssign
                                    259 ; genLabel
      008139                        260 00101$:
                           00003C   261 	Smain$_delay_us$36 ==.
                                    262 ;	inc/delay.h: 27: __ticks--;//      2c;                 1c;     2c    ; 1/2c   
                                    263 ; genMinus
      008139 5A               [ 2]  264 	decw	x
                           00003D   265 	Smain$_delay_us$37 ==.
                                    266 ;	inc/delay.h: 28: } while ( __ticks );
                                    267 ; genIfx
      00813A 5D               [ 2]  268 	tnzw	x
      00813B 27 03            [ 1]  269 	jreq	00118$
      00813D CC 81 39         [ 2]  270 	jp	00101$
      008140                        271 00118$:
                                    272 ;	inc/delay.h: 29: __asm__("nop\n");
                                    273 ;	genInline
      008140 9D               [ 1]  274 	nop
                           000044   275 	Smain$_delay_us$38 ==.
                           000044   276 	Smain$_delay_us$39 ==.
                                    277 ;	inc/delay.h: 42: _delay_cycl( (unsigned short)( T_COUNT(__us) ));
                                    278 ; genLabel
      008141                        279 00105$:
                           000044   280 	Smain$_delay_us$40 ==.
                                    281 ;	inc/delay.h: 43: }
                                    282 ; genEndFunction
                           000044   283 	Smain$_delay_us$41 ==.
                           000044   284 	XFmain$_delay_us$0$0 ==.
      008141 81               [ 4]  285 	ret
                           000045   286 	Smain$_delay_us$42 ==.
                           000045   287 	Smain$delay_ms$43 ==.
                                    288 ;	./src/main.c: 25: void delay_ms(uint16_t ms) {
                                    289 ; genLabel
                                    290 ;	-----------------------------------------
                                    291 ;	 function delay_ms
                                    292 ;	-----------------------------------------
                                    293 ;	Register assignment might be sub-optimal.
                                    294 ;	Stack space usage: 2 bytes.
      008142                        295 _delay_ms:
                           000045   296 	Smain$delay_ms$44 ==.
      008142 89               [ 2]  297 	pushw	x
                           000046   298 	Smain$delay_ms$45 ==.
                           000046   299 	Smain$delay_ms$46 ==.
                                    300 ;	./src/main.c: 27: for (i=0; i<ms; i = i+1){
                                    301 ; genAssign
      008143 5F               [ 1]  302 	clrw	x
      008144 1F 01            [ 2]  303 	ldw	(0x01, sp), x
                                    304 ; genLabel
      008146                        305 00123$:
                                    306 ; genCmp
                                    307 ; genCmpTop
      008146 1E 01            [ 2]  308 	ldw	x, (0x01, sp)
      008148 13 05            [ 2]  309 	cpw	x, (0x05, sp)
      00814A 25 03            [ 1]  310 	jrc	00181$
      00814C CC 81 8B         [ 2]  311 	jp	00125$
      00814F                        312 00181$:
                                    313 ; skipping generated iCode
                           000052   314 	Smain$delay_ms$47 ==.
                                    315 ;	inc/delay.h: 42: _delay_cycl( (unsigned short)( T_COUNT(__us) ));
                                    316 ; genAssign
      00814F AE 01 F5         [ 2]  317 	ldw	x, #0x01f5
                           000055   318 	Smain$delay_ms$48 ==.
                                    319 ;	inc/delay.h: 25: __asm__("nop\n nop\n"); 
                                    320 ;	genInline
      008152 9D               [ 1]  321 	nop
      008153 9D               [ 1]  322 	nop
                           000057   323 	Smain$delay_ms$49 ==.
                           000057   324 	Smain$delay_ms$50 ==.
                                    325 ;	inc/delay.h: 26: do { 		// ASM: ldw X, #tick; lab$: decw X; tnzw X; jrne lab$
                                    326 ; genAssign
                                    327 ; genLabel
      008154                        328 00102$:
                           000057   329 	Smain$delay_ms$51 ==.
                                    330 ;	inc/delay.h: 27: __ticks--;//      2c;                 1c;     2c    ; 1/2c   
                                    331 ; genMinus
      008154 5A               [ 2]  332 	decw	x
                           000058   333 	Smain$delay_ms$52 ==.
                                    334 ;	inc/delay.h: 28: } while ( __ticks );
                                    335 ; genIfx
      008155 5D               [ 2]  336 	tnzw	x
      008156 27 03            [ 1]  337 	jreq	00182$
      008158 CC 81 54         [ 2]  338 	jp	00102$
      00815B                        339 00182$:
                                    340 ;	inc/delay.h: 29: __asm__("nop\n");
                                    341 ;	genInline
      00815B 9D               [ 1]  342 	nop
                           00005F   343 	Smain$delay_ms$53 ==.
                           00005F   344 	Smain$delay_ms$53 ==.
                                    345 ;	inc/delay.h: 42: _delay_cycl( (unsigned short)( T_COUNT(__us) ));
                                    346 ; genAssign
      00815C AE 01 F1         [ 2]  347 	ldw	x, #0x01f1
                           000062   348 	Smain$delay_ms$54 ==.
                                    349 ;	inc/delay.h: 25: __asm__("nop\n nop\n"); 
                                    350 ;	genInline
      00815F 9D               [ 1]  351 	nop
      008160 9D               [ 1]  352 	nop
                           000064   353 	Smain$delay_ms$55 ==.
                           000064   354 	Smain$delay_ms$56 ==.
                                    355 ;	inc/delay.h: 26: do { 		// ASM: ldw X, #tick; lab$: decw X; tnzw X; jrne lab$
                                    356 ; genAssign
                                    357 ; genLabel
      008161                        358 00107$:
                           000064   359 	Smain$delay_ms$57 ==.
                                    360 ;	inc/delay.h: 27: __ticks--;//      2c;                 1c;     2c    ; 1/2c   
                                    361 ; genMinus
      008161 5A               [ 2]  362 	decw	x
                           000065   363 	Smain$delay_ms$58 ==.
                                    364 ;	inc/delay.h: 28: } while ( __ticks );
                                    365 ; genIfx
      008162 5D               [ 2]  366 	tnzw	x
      008163 27 03            [ 1]  367 	jreq	00183$
      008165 CC 81 61         [ 2]  368 	jp	00107$
      008168                        369 00183$:
                                    370 ;	inc/delay.h: 29: __asm__("nop\n");
                                    371 ;	genInline
      008168 9D               [ 1]  372 	nop
                           00006C   373 	Smain$delay_ms$59 ==.
                           00006C   374 	Smain$delay_ms$59 ==.
                                    375 ;	inc/delay.h: 42: _delay_cycl( (unsigned short)( T_COUNT(__us) ));
                                    376 ; genAssign
      008169 AE 01 F5         [ 2]  377 	ldw	x, #0x01f5
                           00006F   378 	Smain$delay_ms$60 ==.
                                    379 ;	inc/delay.h: 25: __asm__("nop\n nop\n"); 
                                    380 ;	genInline
      00816C 9D               [ 1]  381 	nop
      00816D 9D               [ 1]  382 	nop
                           000071   383 	Smain$delay_ms$61 ==.
                           000071   384 	Smain$delay_ms$62 ==.
                                    385 ;	inc/delay.h: 26: do { 		// ASM: ldw X, #tick; lab$: decw X; tnzw X; jrne lab$
                                    386 ; genAssign
                                    387 ; genLabel
      00816E                        388 00112$:
                           000071   389 	Smain$delay_ms$63 ==.
                                    390 ;	inc/delay.h: 27: __ticks--;//      2c;                 1c;     2c    ; 1/2c   
                                    391 ; genMinus
      00816E 5A               [ 2]  392 	decw	x
                           000072   393 	Smain$delay_ms$64 ==.
                                    394 ;	inc/delay.h: 28: } while ( __ticks );
                                    395 ; genIfx
      00816F 5D               [ 2]  396 	tnzw	x
      008170 27 03            [ 1]  397 	jreq	00184$
      008172 CC 81 6E         [ 2]  398 	jp	00112$
      008175                        399 00184$:
                                    400 ;	inc/delay.h: 29: __asm__("nop\n");
                                    401 ;	genInline
      008175 9D               [ 1]  402 	nop
                           000079   403 	Smain$delay_ms$65 ==.
                           000079   404 	Smain$delay_ms$65 ==.
                                    405 ;	inc/delay.h: 42: _delay_cycl( (unsigned short)( T_COUNT(__us) ));
                                    406 ; genAssign
      008176 AE 01 F5         [ 2]  407 	ldw	x, #0x01f5
                           00007C   408 	Smain$delay_ms$66 ==.
                                    409 ;	inc/delay.h: 25: __asm__("nop\n nop\n"); 
                                    410 ;	genInline
      008179 9D               [ 1]  411 	nop
      00817A 9D               [ 1]  412 	nop
                           00007E   413 	Smain$delay_ms$67 ==.
                           00007E   414 	Smain$delay_ms$68 ==.
                                    415 ;	inc/delay.h: 26: do { 		// ASM: ldw X, #tick; lab$: decw X; tnzw X; jrne lab$
                                    416 ; genAssign
                                    417 ; genLabel
      00817B                        418 00117$:
                           00007E   419 	Smain$delay_ms$69 ==.
                                    420 ;	inc/delay.h: 27: __ticks--;//      2c;                 1c;     2c    ; 1/2c   
                                    421 ; genMinus
      00817B 5A               [ 2]  422 	decw	x
                           00007F   423 	Smain$delay_ms$70 ==.
                                    424 ;	inc/delay.h: 28: } while ( __ticks );
                                    425 ; genIfx
      00817C 5D               [ 2]  426 	tnzw	x
      00817D 27 03            [ 1]  427 	jreq	00185$
      00817F CC 81 7B         [ 2]  428 	jp	00117$
      008182                        429 00185$:
                                    430 ;	inc/delay.h: 29: __asm__("nop\n");
                                    431 ;	genInline
      008182 9D               [ 1]  432 	nop
                           000086   433 	Smain$delay_ms$71 ==.
                           000086   434 	Smain$delay_ms$72 ==.
                                    435 ;	./src/main.c: 27: for (i=0; i<ms; i = i+1){
                                    436 ; genCast
                                    437 ; genAssign
      008183 1E 01            [ 2]  438 	ldw	x, (0x01, sp)
                                    439 ; genPlus
      008185 5C               [ 1]  440 	incw	x
                                    441 ; genCast
                                    442 ; genAssign
                                    443 ; genAssign
      008186 1F 01            [ 2]  444 	ldw	(0x01, sp), x
                                    445 ; genGoto
      008188 CC 81 46         [ 2]  446 	jp	00123$
                                    447 ; genLabel
      00818B                        448 00125$:
                           00008E   449 	Smain$delay_ms$73 ==.
                                    450 ;	./src/main.c: 33: }
                                    451 ; genEndFunction
      00818B 85               [ 2]  452 	popw	x
                           00008F   453 	Smain$delay_ms$74 ==.
                           00008F   454 	Smain$delay_ms$75 ==.
                           00008F   455 	XG$delay_ms$0$0 ==.
      00818C 81               [ 4]  456 	ret
                           000090   457 	Smain$delay_ms$76 ==.
                           000090   458 	Smain$setup$77 ==.
                                    459 ;	./src/main.c: 35: void setup(void)
                                    460 ; genLabel
                                    461 ;	-----------------------------------------
                                    462 ;	 function setup
                                    463 ;	-----------------------------------------
                                    464 ;	Register assignment is optimal.
                                    465 ;	Stack space usage: 0 bytes.
      00818D                        466 _setup:
                           000090   467 	Smain$setup$78 ==.
                           000090   468 	Smain$setup$79 ==.
                                    469 ;	./src/main.c: 37: CLK_HSIPrescalerConfig(CLK_PRESCALER_HSIDIV1);      // taktovani MCU na 16MHz
                                    470 ; genIPush
      00818D 4B 00            [ 1]  471 	push	#0x00
                           000092   472 	Smain$setup$80 ==.
                                    473 ; genCall
      00818F CD 99 24         [ 4]  474 	call	_CLK_HSIPrescalerConfig
      008192 84               [ 1]  475 	pop	a
                           000096   476 	Smain$setup$81 ==.
                           000096   477 	Smain$setup$82 ==.
                                    478 ;	./src/main.c: 38: GPIO_Init(G4_PORT, G4_PIN, GPIO_MODE_OUT_PP_LOW_SLOW);
                                    479 ; genIPush
      008193 4B C0            [ 1]  480 	push	#0xc0
                           000098   481 	Smain$setup$83 ==.
                                    482 ; genIPush
      008195 4B 10            [ 1]  483 	push	#0x10
                           00009A   484 	Smain$setup$84 ==.
                                    485 ; genIPush
      008197 4B 1E            [ 1]  486 	push	#0x1e
                           00009C   487 	Smain$setup$85 ==.
      008199 4B 50            [ 1]  488 	push	#0x50
                           00009E   489 	Smain$setup$86 ==.
                                    490 ; genCall
      00819B CD 96 0F         [ 4]  491 	call	_GPIO_Init
      00819E 5B 04            [ 2]  492 	addw	sp, #4
                           0000A3   493 	Smain$setup$87 ==.
                           0000A3   494 	Smain$setup$88 ==.
                                    495 ;	./src/main.c: 39: GPIO_Init(BTN_PORT, BTN_PIN, GPIO_MODE_IN_FL_NO_IT);
                                    496 ; genIPush
      0081A0 4B 00            [ 1]  497 	push	#0x00
                           0000A5   498 	Smain$setup$89 ==.
                                    499 ; genIPush
      0081A2 4B 10            [ 1]  500 	push	#0x10
                           0000A7   501 	Smain$setup$90 ==.
                                    502 ; genIPush
      0081A4 4B 14            [ 1]  503 	push	#0x14
                           0000A9   504 	Smain$setup$91 ==.
      0081A6 4B 50            [ 1]  505 	push	#0x50
                           0000AB   506 	Smain$setup$92 ==.
                                    507 ; genCall
      0081A8 CD 96 0F         [ 4]  508 	call	_GPIO_Init
      0081AB 5B 04            [ 2]  509 	addw	sp, #4
                           0000B0   510 	Smain$setup$93 ==.
                           0000B0   511 	Smain$setup$94 ==.
                                    512 ;	./src/main.c: 41: init_milis();
                                    513 ; genCall
      0081AD CD 88 13         [ 4]  514 	call	_init_milis
                           0000B3   515 	Smain$setup$95 ==.
                                    516 ;	./src/main.c: 42: lcd_init();
                                    517 ; genCall
      0081B0 CD 89 88         [ 4]  518 	call	_lcd_init
                           0000B6   519 	Smain$setup$96 ==.
                                    520 ;	./src/main.c: 45: ADC2_SchmittTriggerConfig(ADC2_SCHMITTTRIG_CHANNEL4, DISABLE);
                                    521 ; genIPush
      0081B3 4B 00            [ 1]  522 	push	#0x00
                           0000B8   523 	Smain$setup$97 ==.
                                    524 ; genIPush
      0081B5 4B 04            [ 1]  525 	push	#0x04
                           0000BA   526 	Smain$setup$98 ==.
                                    527 ; genCall
      0081B7 CD A3 A2         [ 4]  528 	call	_ADC2_SchmittTriggerConfig
      0081BA 85               [ 2]  529 	popw	x
                           0000BE   530 	Smain$setup$99 ==.
                           0000BE   531 	Smain$setup$100 ==.
                                    532 ;	./src/main.c: 46: ADC2_SchmittTriggerConfig(ADC2_SCHMITTTRIG_CHANNEL5, DISABLE);
                                    533 ; genIPush
      0081BB 4B 00            [ 1]  534 	push	#0x00
                           0000C0   535 	Smain$setup$101 ==.
                                    536 ; genIPush
      0081BD 4B 05            [ 1]  537 	push	#0x05
                           0000C2   538 	Smain$setup$102 ==.
                                    539 ; genCall
      0081BF CD A3 A2         [ 4]  540 	call	_ADC2_SchmittTriggerConfig
      0081C2 85               [ 2]  541 	popw	x
                           0000C6   542 	Smain$setup$103 ==.
                           0000C6   543 	Smain$setup$104 ==.
                                    544 ;	./src/main.c: 50: ADC2_PrescalerConfig(ADC2_PRESSEL_FCPU_D4);
                                    545 ; genIPush
      0081C3 4B 20            [ 1]  546 	push	#0x20
                           0000C8   547 	Smain$setup$105 ==.
                                    548 ; genCall
      0081C5 CD A3 91         [ 4]  549 	call	_ADC2_PrescalerConfig
      0081C8 84               [ 1]  550 	pop	a
                           0000CC   551 	Smain$setup$106 ==.
                           0000CC   552 	Smain$setup$107 ==.
                                    553 ;	./src/main.c: 52: ADC2_AlignConfig(ADC2_ALIGN_RIGHT);
                                    554 ; genIPush
      0081C9 4B 08            [ 1]  555 	push	#0x08
                           0000CE   556 	Smain$setup$108 ==.
                                    557 ; genCall
      0081CB CD 88 D0         [ 4]  558 	call	_ADC2_AlignConfig
      0081CE 84               [ 1]  559 	pop	a
                           0000D2   560 	Smain$setup$109 ==.
                           0000D2   561 	Smain$setup$110 ==.
                                    562 ;	./src/main.c: 54: ADC2_Select_Channel(ADC2_CHANNEL_4);
                                    563 ; genIPush
      0081CF 4B 04            [ 1]  564 	push	#0x04
                           0000D4   565 	Smain$setup$111 ==.
                                    566 ; genCall
      0081D1 CD 88 BD         [ 4]  567 	call	_ADC2_Select_Channel
      0081D4 84               [ 1]  568 	pop	a
                           0000D8   569 	Smain$setup$112 ==.
                           0000D8   570 	Smain$setup$113 ==.
                                    571 ;	./src/main.c: 56: ADC2_Cmd(ENABLE);
                                    572 ; genIPush
      0081D5 4B 01            [ 1]  573 	push	#0x01
                           0000DA   574 	Smain$setup$114 ==.
                                    575 ; genCall
      0081D7 CD A3 61         [ 4]  576 	call	_ADC2_Cmd
      0081DA 84               [ 1]  577 	pop	a
                           0000DE   578 	Smain$setup$115 ==.
                           0000DE   579 	Smain$setup$116 ==.
                                    580 ;	./src/main.c: 58: ADC2_Startup_Wait();
                                    581 ; genCall
      0081DB CC 88 E8         [ 2]  582 	jp	_ADC2_Startup_Wait
                                    583 ; genLabel
      0081DE                        584 00101$:
                           0000E1   585 	Smain$setup$117 ==.
                                    586 ;	./src/main.c: 59: }
                                    587 ; genEndFunction
                           0000E1   588 	Smain$setup$118 ==.
                           0000E1   589 	XG$setup$0$0 ==.
      0081DE 81               [ 4]  590 	ret
                           0000E2   591 	Smain$setup$119 ==.
                           0000E2   592 	Smain$main$120 ==.
                                    593 ;	./src/main.c: 62: int main(void)
                                    594 ; genLabel
                                    595 ;	-----------------------------------------
                                    596 ;	 function main
                                    597 ;	-----------------------------------------
                                    598 ;	Register assignment might be sub-optimal.
                                    599 ;	Stack space usage: 47 bytes.
      0081DF                        600 _main:
                           0000E2   601 	Smain$main$121 ==.
      0081DF 52 2F            [ 2]  602 	sub	sp, #47
                           0000E4   603 	Smain$main$122 ==.
                           0000E4   604 	Smain$main$123 ==.
                                    605 ;	./src/main.c: 67: uint16_t x = 0;
                                    606 ; genAssign
      0081E1 5F               [ 1]  607 	clrw	x
      0081E2 1F 2C            [ 2]  608 	ldw	(0x2c, sp), x
                           0000E7   609 	Smain$main$124 ==.
                                    610 ;	./src/main.c: 72: setup();
                                    611 ; genCall
      0081E4 CD 81 8D         [ 4]  612 	call	_setup
                           0000EA   613 	Smain$main$125 ==.
                                    614 ;	./src/main.c: 74: while (1) {
                                    615 ; genAssign
      0081E7 5F               [ 1]  616 	clrw	x
      0081E8 1F 21            [ 2]  617 	ldw	(0x21, sp), x
                                    618 ; genAssign
      0081EA 5F               [ 1]  619 	clrw	x
      0081EB 1F 23            [ 2]  620 	ldw	(0x23, sp), x
                                    621 ; genAssign
      0081ED 5F               [ 1]  622 	clrw	x
      0081EE 1F 27            [ 2]  623 	ldw	(0x27, sp), x
      0081F0 1F 25            [ 2]  624 	ldw	(0x25, sp), x
                                    625 ; genLabel
      0081F2                        626 00142$:
                           0000F5   627 	Smain$main$126 ==.
                           0000F5   628 	Smain$main$127 ==.
                                    629 ;	./src/main.c: 76: lcd_gotoxy(0, 0);
                                    630 ; genIPush
      0081F2 4B 00            [ 1]  631 	push	#0x00
                           0000F7   632 	Smain$main$128 ==.
                                    633 ; genIPush
      0081F4 4B 00            [ 1]  634 	push	#0x00
                           0000F9   635 	Smain$main$129 ==.
                                    636 ; genCall
      0081F6 CD 8A 0B         [ 4]  637 	call	_lcd_gotoxy
      0081F9 85               [ 2]  638 	popw	x
                           0000FD   639 	Smain$main$130 ==.
                           0000FD   640 	Smain$main$131 ==.
                                    641 ;	./src/main.c: 77: sprintf(text,"tvuj vyber:");
                                    642 ; skipping iCode since result will be rematerialized
                                    643 ; skipping iCode since result will be rematerialized
                                    644 ; skipping iCode since result will be rematerialized
                                    645 ; skipping iCode since result will be rematerialized
                                    646 ; genIPush
      0081FA 4B 8C            [ 1]  647 	push	#<(___str_0+0)
                           0000FF   648 	Smain$main$132 ==.
      0081FC 4B 80            [ 1]  649 	push	#((___str_0+0) >> 8)
                           000101   650 	Smain$main$133 ==.
                                    651 ; genIPush
      0081FE 96               [ 1]  652 	ldw	x, sp
      0081FF 1C 00 03         [ 2]  653 	addw	x, #3
      008202 89               [ 2]  654 	pushw	x
                           000106   655 	Smain$main$134 ==.
                                    656 ; genCall
      008203 CD A5 A7         [ 4]  657 	call	_sprintf
      008206 5B 04            [ 2]  658 	addw	sp, #4
                           00010B   659 	Smain$main$135 ==.
                           00010B   660 	Smain$main$136 ==.
                                    661 ;	./src/main.c: 78: lcd_puts(text);
                                    662 ; skipping iCode since result will be rematerialized
                                    663 ; skipping iCode since result will be rematerialized
                                    664 ; genIPush
      008208 96               [ 1]  665 	ldw	x, sp
      008209 5C               [ 1]  666 	incw	x
      00820A 89               [ 2]  667 	pushw	x
                           00010E   668 	Smain$main$137 ==.
                                    669 ; genCall
      00820B CD 89 73         [ 4]  670 	call	_lcd_puts
      00820E 85               [ 2]  671 	popw	x
                           000112   672 	Smain$main$138 ==.
                           000112   673 	Smain$main$139 ==.
                                    674 ;	./src/main.c: 80: lcd_gotoxy(0, 1);
                                    675 ; genIPush
      00820F 4B 01            [ 1]  676 	push	#0x01
                           000114   677 	Smain$main$140 ==.
                                    678 ; genIPush
      008211 4B 00            [ 1]  679 	push	#0x00
                           000116   680 	Smain$main$141 ==.
                                    681 ; genCall
      008213 CD 8A 0B         [ 4]  682 	call	_lcd_gotoxy
      008216 85               [ 2]  683 	popw	x
                           00011A   684 	Smain$main$142 ==.
                           00011A   685 	Smain$main$143 ==.
                                    686 ;	./src/main.c: 81: sprintf(text,"stm8 vyber:");
                                    687 ; skipping iCode since result will be rematerialized
                                    688 ; skipping iCode since result will be rematerialized
                                    689 ; skipping iCode since result will be rematerialized
                                    690 ; skipping iCode since result will be rematerialized
                                    691 ; genIPush
      008217 4B 98            [ 1]  692 	push	#<(___str_1+0)
                           00011C   693 	Smain$main$144 ==.
      008219 4B 80            [ 1]  694 	push	#((___str_1+0) >> 8)
                           00011E   695 	Smain$main$145 ==.
                                    696 ; genIPush
      00821B 96               [ 1]  697 	ldw	x, sp
      00821C 1C 00 03         [ 2]  698 	addw	x, #3
      00821F 89               [ 2]  699 	pushw	x
                           000123   700 	Smain$main$146 ==.
                                    701 ; genCall
      008220 CD A5 A7         [ 4]  702 	call	_sprintf
      008223 5B 04            [ 2]  703 	addw	sp, #4
                           000128   704 	Smain$main$147 ==.
                           000128   705 	Smain$main$148 ==.
                                    706 ;	./src/main.c: 82: lcd_puts(text);
                                    707 ; skipping iCode since result will be rematerialized
                                    708 ; skipping iCode since result will be rematerialized
                                    709 ; genIPush
      008225 96               [ 1]  710 	ldw	x, sp
      008226 5C               [ 1]  711 	incw	x
      008227 89               [ 2]  712 	pushw	x
                           00012B   713 	Smain$main$149 ==.
                                    714 ; genCall
      008228 CD 89 73         [ 4]  715 	call	_lcd_puts
      00822B 85               [ 2]  716 	popw	x
                           00012F   717 	Smain$main$150 ==.
                           00012F   718 	Smain$main$151 ==.
                                    719 ;	./src/main.c: 84: lcd_gotoxy(0, 2);
                                    720 ; genIPush
      00822C 4B 02            [ 1]  721 	push	#0x02
                           000131   722 	Smain$main$152 ==.
                                    723 ; genIPush
      00822E 4B 00            [ 1]  724 	push	#0x00
                           000133   725 	Smain$main$153 ==.
                                    726 ; genCall
      008230 CD 8A 0B         [ 4]  727 	call	_lcd_gotoxy
      008233 85               [ 2]  728 	popw	x
                           000137   729 	Smain$main$154 ==.
                           000137   730 	Smain$main$155 ==.
                                    731 ;	./src/main.c: 85: sprintf(text,"body ty:");
                                    732 ; skipping iCode since result will be rematerialized
                                    733 ; skipping iCode since result will be rematerialized
                                    734 ; skipping iCode since result will be rematerialized
                                    735 ; skipping iCode since result will be rematerialized
                                    736 ; genIPush
      008234 4B A4            [ 1]  737 	push	#<(___str_2+0)
                           000139   738 	Smain$main$156 ==.
      008236 4B 80            [ 1]  739 	push	#((___str_2+0) >> 8)
                           00013B   740 	Smain$main$157 ==.
                                    741 ; genIPush
      008238 96               [ 1]  742 	ldw	x, sp
      008239 1C 00 03         [ 2]  743 	addw	x, #3
      00823C 89               [ 2]  744 	pushw	x
                           000140   745 	Smain$main$158 ==.
                                    746 ; genCall
      00823D CD A5 A7         [ 4]  747 	call	_sprintf
      008240 5B 04            [ 2]  748 	addw	sp, #4
                           000145   749 	Smain$main$159 ==.
                           000145   750 	Smain$main$160 ==.
                                    751 ;	./src/main.c: 86: lcd_puts(text);
                                    752 ; skipping iCode since result will be rematerialized
                                    753 ; skipping iCode since result will be rematerialized
                                    754 ; genIPush
      008242 96               [ 1]  755 	ldw	x, sp
      008243 5C               [ 1]  756 	incw	x
      008244 89               [ 2]  757 	pushw	x
                           000148   758 	Smain$main$161 ==.
                                    759 ; genCall
      008245 CD 89 73         [ 4]  760 	call	_lcd_puts
      008248 85               [ 2]  761 	popw	x
                           00014C   762 	Smain$main$162 ==.
                           00014C   763 	Smain$main$163 ==.
                                    764 ;	./src/main.c: 88: lcd_gotoxy(0, 3);
                                    765 ; genIPush
      008249 4B 03            [ 1]  766 	push	#0x03
                           00014E   767 	Smain$main$164 ==.
                                    768 ; genIPush
      00824B 4B 00            [ 1]  769 	push	#0x00
                           000150   770 	Smain$main$165 ==.
                                    771 ; genCall
      00824D CD 8A 0B         [ 4]  772 	call	_lcd_gotoxy
      008250 85               [ 2]  773 	popw	x
                           000154   774 	Smain$main$166 ==.
                           000154   775 	Smain$main$167 ==.
                                    776 ;	./src/main.c: 89: sprintf(text,"boty stm8:");
                                    777 ; skipping iCode since result will be rematerialized
                                    778 ; skipping iCode since result will be rematerialized
                                    779 ; skipping iCode since result will be rematerialized
                                    780 ; skipping iCode since result will be rematerialized
                                    781 ; genIPush
      008251 4B AD            [ 1]  782 	push	#<(___str_3+0)
                           000156   783 	Smain$main$168 ==.
      008253 4B 80            [ 1]  784 	push	#((___str_3+0) >> 8)
                           000158   785 	Smain$main$169 ==.
                                    786 ; genIPush
      008255 96               [ 1]  787 	ldw	x, sp
      008256 1C 00 03         [ 2]  788 	addw	x, #3
      008259 89               [ 2]  789 	pushw	x
                           00015D   790 	Smain$main$170 ==.
                                    791 ; genCall
      00825A CD A5 A7         [ 4]  792 	call	_sprintf
      00825D 5B 04            [ 2]  793 	addw	sp, #4
                           000162   794 	Smain$main$171 ==.
                           000162   795 	Smain$main$172 ==.
                                    796 ;	./src/main.c: 90: lcd_puts(text);
                                    797 ; skipping iCode since result will be rematerialized
                                    798 ; skipping iCode since result will be rematerialized
                                    799 ; genIPush
      00825F 96               [ 1]  800 	ldw	x, sp
      008260 5C               [ 1]  801 	incw	x
      008261 89               [ 2]  802 	pushw	x
                           000165   803 	Smain$main$173 ==.
                                    804 ; genCall
      008262 CD 89 73         [ 4]  805 	call	_lcd_puts
      008265 85               [ 2]  806 	popw	x
                           000169   807 	Smain$main$174 ==.
                           000169   808 	Smain$main$175 ==.
                                    809 ;	./src/main.c: 92: ADCx = ADC_get(ADC2_CHANNEL_4);
                                    810 ; genIPush
      008266 4B 04            [ 1]  811 	push	#0x04
                           00016B   812 	Smain$main$176 ==.
                                    813 ; genCall
      008268 CD 88 99         [ 4]  814 	call	_ADC_get
      00826B 84               [ 1]  815 	pop	a
                           00016F   816 	Smain$main$177 ==.
                                    817 ; genAssign
                           00016F   818 	Smain$main$178 ==.
                           00016F   819 	Smain$main$179 ==.
                                    820 ;	./src/main.c: 94: if (ADCx < 314) {
                                    821 ; genCast
                                    822 ; genAssign
      00826C 1F 2E            [ 2]  823 	ldw	(0x2e, sp), x
                                    824 ; genCmp
                                    825 ; genCmpTop
      00826E 1E 2E            [ 2]  826 	ldw	x, (0x2e, sp)
      008270 A3 01 3A         [ 2]  827 	cpw	x, #0x013a
      008273 25 03            [ 1]  828 	jrc	00256$
      008275 CC 82 9D         [ 2]  829 	jp	00102$
      008278                        830 00256$:
                                    831 ; skipping generated iCode
                           00017B   832 	Smain$main$180 ==.
                           00017B   833 	Smain$main$181 ==.
                                    834 ;	./src/main.c: 95: lcd_gotoxy(11, 0);
                                    835 ; genIPush
      008278 4B 00            [ 1]  836 	push	#0x00
                           00017D   837 	Smain$main$182 ==.
                                    838 ; genIPush
      00827A 4B 0B            [ 1]  839 	push	#0x0b
                           00017F   840 	Smain$main$183 ==.
                                    841 ; genCall
      00827C CD 8A 0B         [ 4]  842 	call	_lcd_gotoxy
      00827F 85               [ 2]  843 	popw	x
                           000183   844 	Smain$main$184 ==.
                           000183   845 	Smain$main$185 ==.
                                    846 ;	./src/main.c: 96: sprintf(text,"papir");
                                    847 ; skipping iCode since result will be rematerialized
                                    848 ; skipping iCode since result will be rematerialized
                                    849 ; skipping iCode since result will be rematerialized
                                    850 ; skipping iCode since result will be rematerialized
                                    851 ; genIPush
      008280 4B B8            [ 1]  852 	push	#<(___str_4+0)
                           000185   853 	Smain$main$186 ==.
      008282 4B 80            [ 1]  854 	push	#((___str_4+0) >> 8)
                           000187   855 	Smain$main$187 ==.
                                    856 ; genIPush
      008284 96               [ 1]  857 	ldw	x, sp
      008285 1C 00 03         [ 2]  858 	addw	x, #3
      008288 89               [ 2]  859 	pushw	x
                           00018C   860 	Smain$main$188 ==.
                                    861 ; genCall
      008289 CD A5 A7         [ 4]  862 	call	_sprintf
      00828C 5B 04            [ 2]  863 	addw	sp, #4
                           000191   864 	Smain$main$189 ==.
                           000191   865 	Smain$main$190 ==.
                                    866 ;	./src/main.c: 97: lcd_puts(text);
                                    867 ; skipping iCode since result will be rematerialized
                                    868 ; skipping iCode since result will be rematerialized
                                    869 ; genIPush
      00828E 96               [ 1]  870 	ldw	x, sp
      00828F 5C               [ 1]  871 	incw	x
      008290 89               [ 2]  872 	pushw	x
                           000194   873 	Smain$main$191 ==.
                                    874 ; genCall
      008291 CD 89 73         [ 4]  875 	call	_lcd_puts
      008294 85               [ 2]  876 	popw	x
                           000198   877 	Smain$main$192 ==.
                           000198   878 	Smain$main$193 ==.
                                    879 ;	./src/main.c: 98: stavty = 1;
                                    880 ; genAssign
      008295 AE 00 01         [ 2]  881 	ldw	x, #0x0001
      008298 1F 27            [ 2]  882 	ldw	(0x27, sp), x
      00829A 5F               [ 1]  883 	clrw	x
      00829B 1F 25            [ 2]  884 	ldw	(0x25, sp), x
                           0001A0   885 	Smain$main$194 ==.
                                    886 ; genLabel
      00829D                        887 00102$:
                           0001A0   888 	Smain$main$195 ==.
                                    889 ;	./src/main.c: 101: if (ADCx > 314 && ADCx < 628) {
                                    890 ; genCmp
                                    891 ; genCmpTop
      00829D 1E 2E            [ 2]  892 	ldw	x, (0x2e, sp)
      00829F A3 01 3A         [ 2]  893 	cpw	x, #0x013a
      0082A2 22 03            [ 1]  894 	jrugt	00257$
      0082A4 CC 82 D6         [ 2]  895 	jp	00104$
      0082A7                        896 00257$:
                                    897 ; skipping generated iCode
                                    898 ; genCmp
                                    899 ; genCmpTop
      0082A7 1E 2E            [ 2]  900 	ldw	x, (0x2e, sp)
      0082A9 A3 02 74         [ 2]  901 	cpw	x, #0x0274
      0082AC 25 03            [ 1]  902 	jrc	00258$
      0082AE CC 82 D6         [ 2]  903 	jp	00104$
      0082B1                        904 00258$:
                                    905 ; skipping generated iCode
                           0001B4   906 	Smain$main$196 ==.
                           0001B4   907 	Smain$main$197 ==.
                                    908 ;	./src/main.c: 102: lcd_gotoxy(11, 0);
                                    909 ; genIPush
      0082B1 4B 00            [ 1]  910 	push	#0x00
                           0001B6   911 	Smain$main$198 ==.
                                    912 ; genIPush
      0082B3 4B 0B            [ 1]  913 	push	#0x0b
                           0001B8   914 	Smain$main$199 ==.
                                    915 ; genCall
      0082B5 CD 8A 0B         [ 4]  916 	call	_lcd_gotoxy
      0082B8 85               [ 2]  917 	popw	x
                           0001BC   918 	Smain$main$200 ==.
                           0001BC   919 	Smain$main$201 ==.
                                    920 ;	./src/main.c: 103: sprintf(text,"nuzky");
                                    921 ; skipping iCode since result will be rematerialized
                                    922 ; skipping iCode since result will be rematerialized
                                    923 ; skipping iCode since result will be rematerialized
                                    924 ; skipping iCode since result will be rematerialized
                                    925 ; genIPush
      0082B9 4B BE            [ 1]  926 	push	#<(___str_5+0)
                           0001BE   927 	Smain$main$202 ==.
      0082BB 4B 80            [ 1]  928 	push	#((___str_5+0) >> 8)
                           0001C0   929 	Smain$main$203 ==.
                                    930 ; genIPush
      0082BD 96               [ 1]  931 	ldw	x, sp
      0082BE 1C 00 03         [ 2]  932 	addw	x, #3
      0082C1 89               [ 2]  933 	pushw	x
                           0001C5   934 	Smain$main$204 ==.
                                    935 ; genCall
      0082C2 CD A5 A7         [ 4]  936 	call	_sprintf
      0082C5 5B 04            [ 2]  937 	addw	sp, #4
                           0001CA   938 	Smain$main$205 ==.
                           0001CA   939 	Smain$main$206 ==.
                                    940 ;	./src/main.c: 104: lcd_puts(text);
                                    941 ; skipping iCode since result will be rematerialized
                                    942 ; skipping iCode since result will be rematerialized
                                    943 ; genIPush
      0082C7 96               [ 1]  944 	ldw	x, sp
      0082C8 5C               [ 1]  945 	incw	x
      0082C9 89               [ 2]  946 	pushw	x
                           0001CD   947 	Smain$main$207 ==.
                                    948 ; genCall
      0082CA CD 89 73         [ 4]  949 	call	_lcd_puts
      0082CD 85               [ 2]  950 	popw	x
                           0001D1   951 	Smain$main$208 ==.
                           0001D1   952 	Smain$main$209 ==.
                                    953 ;	./src/main.c: 105: stavty = 2;
                                    954 ; genAssign
      0082CE AE 00 02         [ 2]  955 	ldw	x, #0x0002
      0082D1 1F 27            [ 2]  956 	ldw	(0x27, sp), x
      0082D3 5F               [ 1]  957 	clrw	x
      0082D4 1F 25            [ 2]  958 	ldw	(0x25, sp), x
                           0001D9   959 	Smain$main$210 ==.
                                    960 ; genLabel
      0082D6                        961 00104$:
                           0001D9   962 	Smain$main$211 ==.
                                    963 ;	./src/main.c: 108: if (ADCx > 628) {
                                    964 ; genCmp
                                    965 ; genCmpTop
      0082D6 1E 2E            [ 2]  966 	ldw	x, (0x2e, sp)
      0082D8 A3 02 74         [ 2]  967 	cpw	x, #0x0274
      0082DB 22 03            [ 1]  968 	jrugt	00259$
      0082DD CC 83 05         [ 2]  969 	jp	00107$
      0082E0                        970 00259$:
                                    971 ; skipping generated iCode
                           0001E3   972 	Smain$main$212 ==.
                           0001E3   973 	Smain$main$213 ==.
                                    974 ;	./src/main.c: 109: lcd_gotoxy(11, 0);
                                    975 ; genIPush
      0082E0 4B 00            [ 1]  976 	push	#0x00
                           0001E5   977 	Smain$main$214 ==.
                                    978 ; genIPush
      0082E2 4B 0B            [ 1]  979 	push	#0x0b
                           0001E7   980 	Smain$main$215 ==.
                                    981 ; genCall
      0082E4 CD 8A 0B         [ 4]  982 	call	_lcd_gotoxy
      0082E7 85               [ 2]  983 	popw	x
                           0001EB   984 	Smain$main$216 ==.
                           0001EB   985 	Smain$main$217 ==.
                                    986 ;	./src/main.c: 110: sprintf(text,"kamen");
                                    987 ; skipping iCode since result will be rematerialized
                                    988 ; skipping iCode since result will be rematerialized
                                    989 ; skipping iCode since result will be rematerialized
                                    990 ; skipping iCode since result will be rematerialized
                                    991 ; genIPush
      0082E8 4B C4            [ 1]  992 	push	#<(___str_6+0)
                           0001ED   993 	Smain$main$218 ==.
      0082EA 4B 80            [ 1]  994 	push	#((___str_6+0) >> 8)
                           0001EF   995 	Smain$main$219 ==.
                                    996 ; genIPush
      0082EC 96               [ 1]  997 	ldw	x, sp
      0082ED 1C 00 03         [ 2]  998 	addw	x, #3
      0082F0 89               [ 2]  999 	pushw	x
                           0001F4  1000 	Smain$main$220 ==.
                                   1001 ; genCall
      0082F1 CD A5 A7         [ 4] 1002 	call	_sprintf
      0082F4 5B 04            [ 2] 1003 	addw	sp, #4
                           0001F9  1004 	Smain$main$221 ==.
                           0001F9  1005 	Smain$main$222 ==.
                                   1006 ;	./src/main.c: 111: lcd_puts(text);
                                   1007 ; skipping iCode since result will be rematerialized
                                   1008 ; skipping iCode since result will be rematerialized
                                   1009 ; genIPush
      0082F6 96               [ 1] 1010 	ldw	x, sp
      0082F7 5C               [ 1] 1011 	incw	x
      0082F8 89               [ 2] 1012 	pushw	x
                           0001FC  1013 	Smain$main$223 ==.
                                   1014 ; genCall
      0082F9 CD 89 73         [ 4] 1015 	call	_lcd_puts
      0082FC 85               [ 2] 1016 	popw	x
                           000200  1017 	Smain$main$224 ==.
                           000200  1018 	Smain$main$225 ==.
                                   1019 ;	./src/main.c: 112: stavty = 3;
                                   1020 ; genAssign
      0082FD AE 00 03         [ 2] 1021 	ldw	x, #0x0003
      008300 1F 27            [ 2] 1022 	ldw	(0x27, sp), x
      008302 5F               [ 1] 1023 	clrw	x
      008303 1F 25            [ 2] 1024 	ldw	(0x25, sp), x
                           000208  1025 	Smain$main$226 ==.
                                   1026 ; genLabel
      008305                       1027 00107$:
                           000208  1028 	Smain$main$227 ==.
                                   1029 ;	./src/main.c: 118: if (BTN_PUSH && x == 0) {
                                   1030 ; genIPush
      008305 4B 10            [ 1] 1031 	push	#0x10
                           00020A  1032 	Smain$main$228 ==.
                                   1033 ; genIPush
      008307 4B 14            [ 1] 1034 	push	#0x14
                           00020C  1035 	Smain$main$229 ==.
      008309 4B 50            [ 1] 1036 	push	#0x50
                           00020E  1037 	Smain$main$230 ==.
                                   1038 ; genCall
      00830B CD 96 C1         [ 4] 1039 	call	_GPIO_ReadInputPin
      00830E 5B 03            [ 2] 1040 	addw	sp, #3
                           000213  1041 	Smain$main$231 ==.
                                   1042 ; genIfx
      008310 4D               [ 1] 1043 	tnz	a
      008311 27 03            [ 1] 1044 	jreq	00260$
      008313 CC 81 F2         [ 2] 1045 	jp	00142$
      008316                       1046 00260$:
                                   1047 ; genIfx
      008316 1E 2C            [ 2] 1048 	ldw	x, (0x2c, sp)
      008318 27 03            [ 1] 1049 	jreq	00261$
      00831A CC 81 F2         [ 2] 1050 	jp	00142$
      00831D                       1051 00261$:
                           000220  1052 	Smain$main$232 ==.
                           000220  1053 	Smain$main$233 ==.
                                   1054 ;	./src/main.c: 122: random = milis() % 3;
                                   1055 ; genCall
      00831D CD 87 F1         [ 4] 1056 	call	_milis
                           000223  1057 	Smain$main$234 ==.
                                   1058 ; genIPush
      008320 4B 03            [ 1] 1059 	push	#0x03
                           000225  1060 	Smain$main$235 ==.
      008322 4B 00            [ 1] 1061 	push	#0x00
                           000227  1062 	Smain$main$236 ==.
      008324 4B 00            [ 1] 1063 	push	#0x00
                           000229  1064 	Smain$main$237 ==.
      008326 4B 00            [ 1] 1065 	push	#0x00
                           00022B  1066 	Smain$main$238 ==.
                                   1067 ; genIPush
      008328 89               [ 2] 1068 	pushw	x
                           00022C  1069 	Smain$main$239 ==.
      008329 90 89            [ 2] 1070 	pushw	y
                           00022E  1071 	Smain$main$240 ==.
                                   1072 ; genCall
      00832B CD A5 0B         [ 4] 1073 	call	__modulong
      00832E 5B 08            [ 2] 1074 	addw	sp, #8
                           000233  1075 	Smain$main$241 ==.
                                   1076 ; genCast
                                   1077 ; genAssign
                                   1078 ; genAssign
      008330 1F 29            [ 2] 1079 	ldw	(0x29, sp), x
                           000235  1080 	Smain$main$242 ==.
                                   1081 ;	./src/main.c: 124: if (random == 0) {
                                   1082 ; genIfx
      008332 1E 29            [ 2] 1083 	ldw	x, (0x29, sp)
      008334 27 03            [ 1] 1084 	jreq	00262$
      008336 CC 83 56         [ 2] 1085 	jp	00109$
      008339                       1086 00262$:
                           00023C  1087 	Smain$main$243 ==.
                           00023C  1088 	Smain$main$244 ==.
                                   1089 ;	./src/main.c: 125: lcd_gotoxy(11, 1);
                                   1090 ; genIPush
      008339 4B 01            [ 1] 1091 	push	#0x01
                           00023E  1092 	Smain$main$245 ==.
                                   1093 ; genIPush
      00833B 4B 0B            [ 1] 1094 	push	#0x0b
                           000240  1095 	Smain$main$246 ==.
                                   1096 ; genCall
      00833D CD 8A 0B         [ 4] 1097 	call	_lcd_gotoxy
      008340 85               [ 2] 1098 	popw	x
                           000244  1099 	Smain$main$247 ==.
                           000244  1100 	Smain$main$248 ==.
                                   1101 ;	./src/main.c: 126: sprintf(text,"papir");
                                   1102 ; skipping iCode since result will be rematerialized
                                   1103 ; skipping iCode since result will be rematerialized
                                   1104 ; skipping iCode since result will be rematerialized
                                   1105 ; skipping iCode since result will be rematerialized
                                   1106 ; genIPush
      008341 4B B8            [ 1] 1107 	push	#<(___str_4+0)
                           000246  1108 	Smain$main$249 ==.
      008343 4B 80            [ 1] 1109 	push	#((___str_4+0) >> 8)
                           000248  1110 	Smain$main$250 ==.
                                   1111 ; genIPush
      008345 96               [ 1] 1112 	ldw	x, sp
      008346 1C 00 03         [ 2] 1113 	addw	x, #3
      008349 89               [ 2] 1114 	pushw	x
                           00024D  1115 	Smain$main$251 ==.
                                   1116 ; genCall
      00834A CD A5 A7         [ 4] 1117 	call	_sprintf
      00834D 5B 04            [ 2] 1118 	addw	sp, #4
                           000252  1119 	Smain$main$252 ==.
                           000252  1120 	Smain$main$253 ==.
                                   1121 ;	./src/main.c: 127: lcd_puts(text);
                                   1122 ; skipping iCode since result will be rematerialized
                                   1123 ; skipping iCode since result will be rematerialized
                                   1124 ; genIPush
      00834F 96               [ 1] 1125 	ldw	x, sp
      008350 5C               [ 1] 1126 	incw	x
      008351 89               [ 2] 1127 	pushw	x
                           000255  1128 	Smain$main$254 ==.
                                   1129 ; genCall
      008352 CD 89 73         [ 4] 1130 	call	_lcd_puts
      008355 85               [ 2] 1131 	popw	x
                           000259  1132 	Smain$main$255 ==.
                           000259  1133 	Smain$main$256 ==.
                                   1134 ; genLabel
      008356                       1135 00109$:
                           000259  1136 	Smain$main$257 ==.
                           000259  1137 	Smain$main$258 ==.
                                   1138 ;	./src/main.c: 131: if (random == 1) {
                                   1139 ; genCast
                                   1140 ; genAssign
      008356 16 29            [ 2] 1141 	ldw	y, (0x29, sp)
      008358 17 2E            [ 2] 1142 	ldw	(0x2e, sp), y
                                   1143 ; genCmpEQorNE
      00835A 1E 2E            [ 2] 1144 	ldw	x, (0x2e, sp)
      00835C 5A               [ 2] 1145 	decw	x
      00835D 26 07            [ 1] 1146 	jrne	00264$
      00835F A6 01            [ 1] 1147 	ld	a, #0x01
      008361 6B 2B            [ 1] 1148 	ld	(0x2b, sp), a
      008363 CC 83 68         [ 2] 1149 	jp	00265$
      008366                       1150 00264$:
      008366 0F 2B            [ 1] 1151 	clr	(0x2b, sp)
      008368                       1152 00265$:
                           00026B  1153 	Smain$main$259 ==.
                                   1154 ; genIfx
      008368 0D 2B            [ 1] 1155 	tnz	(0x2b, sp)
      00836A 26 03            [ 1] 1156 	jrne	00266$
      00836C CC 83 8C         [ 2] 1157 	jp	00111$
      00836F                       1158 00266$:
                           000272  1159 	Smain$main$260 ==.
                           000272  1160 	Smain$main$261 ==.
                                   1161 ;	./src/main.c: 132: lcd_gotoxy(11, 1);
                                   1162 ; genIPush
      00836F 4B 01            [ 1] 1163 	push	#0x01
                           000274  1164 	Smain$main$262 ==.
                                   1165 ; genIPush
      008371 4B 0B            [ 1] 1166 	push	#0x0b
                           000276  1167 	Smain$main$263 ==.
                                   1168 ; genCall
      008373 CD 8A 0B         [ 4] 1169 	call	_lcd_gotoxy
      008376 85               [ 2] 1170 	popw	x
                           00027A  1171 	Smain$main$264 ==.
                           00027A  1172 	Smain$main$265 ==.
                                   1173 ;	./src/main.c: 133: sprintf(text,"nuzky");
                                   1174 ; skipping iCode since result will be rematerialized
                                   1175 ; skipping iCode since result will be rematerialized
                                   1176 ; skipping iCode since result will be rematerialized
                                   1177 ; skipping iCode since result will be rematerialized
                                   1178 ; genIPush
      008377 4B BE            [ 1] 1179 	push	#<(___str_5+0)
                           00027C  1180 	Smain$main$266 ==.
      008379 4B 80            [ 1] 1181 	push	#((___str_5+0) >> 8)
                           00027E  1182 	Smain$main$267 ==.
                                   1183 ; genIPush
      00837B 96               [ 1] 1184 	ldw	x, sp
      00837C 1C 00 03         [ 2] 1185 	addw	x, #3
      00837F 89               [ 2] 1186 	pushw	x
                           000283  1187 	Smain$main$268 ==.
                                   1188 ; genCall
      008380 CD A5 A7         [ 4] 1189 	call	_sprintf
      008383 5B 04            [ 2] 1190 	addw	sp, #4
                           000288  1191 	Smain$main$269 ==.
                           000288  1192 	Smain$main$270 ==.
                                   1193 ;	./src/main.c: 134: lcd_puts(text);
                                   1194 ; skipping iCode since result will be rematerialized
                                   1195 ; skipping iCode since result will be rematerialized
                                   1196 ; genIPush
      008385 96               [ 1] 1197 	ldw	x, sp
      008386 5C               [ 1] 1198 	incw	x
      008387 89               [ 2] 1199 	pushw	x
                           00028B  1200 	Smain$main$271 ==.
                                   1201 ; genCall
      008388 CD 89 73         [ 4] 1202 	call	_lcd_puts
      00838B 85               [ 2] 1203 	popw	x
                           00028F  1204 	Smain$main$272 ==.
                           00028F  1205 	Smain$main$273 ==.
                                   1206 ; genLabel
      00838C                       1207 00111$:
                           00028F  1208 	Smain$main$274 ==.
                           00028F  1209 	Smain$main$275 ==.
                                   1210 ;	./src/main.c: 138: if (random == 2) {
                                   1211 ; genCmpEQorNE
      00838C 1E 2E            [ 2] 1212 	ldw	x, (0x2e, sp)
      00838E A3 00 02         [ 2] 1213 	cpw	x, #0x0002
      008391 26 07            [ 1] 1214 	jrne	00268$
      008393 A6 01            [ 1] 1215 	ld	a, #0x01
      008395 6B 2C            [ 1] 1216 	ld	(0x2c, sp), a
      008397 CC 83 9C         [ 2] 1217 	jp	00269$
      00839A                       1218 00268$:
      00839A 0F 2C            [ 1] 1219 	clr	(0x2c, sp)
      00839C                       1220 00269$:
                           00029F  1221 	Smain$main$276 ==.
                                   1222 ; genIfx
      00839C 0D 2C            [ 1] 1223 	tnz	(0x2c, sp)
      00839E 26 03            [ 1] 1224 	jrne	00270$
      0083A0 CC 83 C0         [ 2] 1225 	jp	00113$
      0083A3                       1226 00270$:
                           0002A6  1227 	Smain$main$277 ==.
                           0002A6  1228 	Smain$main$278 ==.
                                   1229 ;	./src/main.c: 139: lcd_gotoxy(11, 1);
                                   1230 ; genIPush
      0083A3 4B 01            [ 1] 1231 	push	#0x01
                           0002A8  1232 	Smain$main$279 ==.
                                   1233 ; genIPush
      0083A5 4B 0B            [ 1] 1234 	push	#0x0b
                           0002AA  1235 	Smain$main$280 ==.
                                   1236 ; genCall
      0083A7 CD 8A 0B         [ 4] 1237 	call	_lcd_gotoxy
      0083AA 85               [ 2] 1238 	popw	x
                           0002AE  1239 	Smain$main$281 ==.
                           0002AE  1240 	Smain$main$282 ==.
                                   1241 ;	./src/main.c: 140: sprintf(text,"kamen");
                                   1242 ; skipping iCode since result will be rematerialized
                                   1243 ; skipping iCode since result will be rematerialized
                                   1244 ; skipping iCode since result will be rematerialized
                                   1245 ; skipping iCode since result will be rematerialized
                                   1246 ; genIPush
      0083AB 4B C4            [ 1] 1247 	push	#<(___str_6+0)
                           0002B0  1248 	Smain$main$283 ==.
      0083AD 4B 80            [ 1] 1249 	push	#((___str_6+0) >> 8)
                           0002B2  1250 	Smain$main$284 ==.
                                   1251 ; genIPush
      0083AF 96               [ 1] 1252 	ldw	x, sp
      0083B0 1C 00 03         [ 2] 1253 	addw	x, #3
      0083B3 89               [ 2] 1254 	pushw	x
                           0002B7  1255 	Smain$main$285 ==.
                                   1256 ; genCall
      0083B4 CD A5 A7         [ 4] 1257 	call	_sprintf
      0083B7 5B 04            [ 2] 1258 	addw	sp, #4
                           0002BC  1259 	Smain$main$286 ==.
                           0002BC  1260 	Smain$main$287 ==.
                                   1261 ;	./src/main.c: 141: lcd_puts(text);
                                   1262 ; skipping iCode since result will be rematerialized
                                   1263 ; skipping iCode since result will be rematerialized
                                   1264 ; genIPush
      0083B9 96               [ 1] 1265 	ldw	x, sp
      0083BA 5C               [ 1] 1266 	incw	x
      0083BB 89               [ 2] 1267 	pushw	x
                           0002BF  1268 	Smain$main$288 ==.
                                   1269 ; genCall
      0083BC CD 89 73         [ 4] 1270 	call	_lcd_puts
      0083BF 85               [ 2] 1271 	popw	x
                           0002C3  1272 	Smain$main$289 ==.
                           0002C3  1273 	Smain$main$290 ==.
                                   1274 ; genLabel
      0083C0                       1275 00113$:
                           0002C3  1276 	Smain$main$291 ==.
                                   1277 ;	./src/main.c: 145: lcd_gotoxy(10 , 3);
                                   1278 ; genIPush
      0083C0 4B 03            [ 1] 1279 	push	#0x03
                           0002C5  1280 	Smain$main$292 ==.
                                   1281 ; genIPush
      0083C2 4B 0A            [ 1] 1282 	push	#0x0a
                           0002C7  1283 	Smain$main$293 ==.
                                   1284 ; genCall
      0083C4 CD 8A 0B         [ 4] 1285 	call	_lcd_gotoxy
      0083C7 85               [ 2] 1286 	popw	x
                           0002CB  1287 	Smain$main$294 ==.
                           0002CB  1288 	Smain$main$295 ==.
                                   1289 ;	./src/main.c: 146: sprintf(text,"%1u",bodystm);
                                   1290 ; skipping iCode since result will be rematerialized
                                   1291 ; skipping iCode since result will be rematerialized
                                   1292 ; skipping iCode since result will be rematerialized
                                   1293 ; skipping iCode since result will be rematerialized
                                   1294 ; genIPush
      0083C8 1E 21            [ 2] 1295 	ldw	x, (0x21, sp)
      0083CA 89               [ 2] 1296 	pushw	x
                           0002CE  1297 	Smain$main$296 ==.
                                   1298 ; genIPush
      0083CB 4B CA            [ 1] 1299 	push	#<(___str_7+0)
                           0002D0  1300 	Smain$main$297 ==.
      0083CD 4B 80            [ 1] 1301 	push	#((___str_7+0) >> 8)
                           0002D2  1302 	Smain$main$298 ==.
                                   1303 ; genIPush
      0083CF 96               [ 1] 1304 	ldw	x, sp
      0083D0 1C 00 05         [ 2] 1305 	addw	x, #5
      0083D3 89               [ 2] 1306 	pushw	x
                           0002D7  1307 	Smain$main$299 ==.
                                   1308 ; genCall
      0083D4 CD A5 A7         [ 4] 1309 	call	_sprintf
      0083D7 5B 06            [ 2] 1310 	addw	sp, #6
                           0002DC  1311 	Smain$main$300 ==.
                           0002DC  1312 	Smain$main$301 ==.
                                   1313 ;	./src/main.c: 147: lcd_puts(text);
                                   1314 ; skipping iCode since result will be rematerialized
                                   1315 ; skipping iCode since result will be rematerialized
                                   1316 ; genIPush
      0083D9 96               [ 1] 1317 	ldw	x, sp
      0083DA 5C               [ 1] 1318 	incw	x
      0083DB 89               [ 2] 1319 	pushw	x
                           0002DF  1320 	Smain$main$302 ==.
                                   1321 ; genCall
      0083DC CD 89 73         [ 4] 1322 	call	_lcd_puts
      0083DF 85               [ 2] 1323 	popw	x
                           0002E3  1324 	Smain$main$303 ==.
                           0002E3  1325 	Smain$main$304 ==.
                                   1326 ;	./src/main.c: 149: lcd_gotoxy(10 , 2);
                                   1327 ; genIPush
      0083E0 4B 02            [ 1] 1328 	push	#0x02
                           0002E5  1329 	Smain$main$305 ==.
                                   1330 ; genIPush
      0083E2 4B 0A            [ 1] 1331 	push	#0x0a
                           0002E7  1332 	Smain$main$306 ==.
                                   1333 ; genCall
      0083E4 CD 8A 0B         [ 4] 1334 	call	_lcd_gotoxy
      0083E7 85               [ 2] 1335 	popw	x
                           0002EB  1336 	Smain$main$307 ==.
                           0002EB  1337 	Smain$main$308 ==.
                                   1338 ;	./src/main.c: 150: sprintf(text,"%1u",bodyty);
                                   1339 ; skipping iCode since result will be rematerialized
                                   1340 ; skipping iCode since result will be rematerialized
                                   1341 ; skipping iCode since result will be rematerialized
                                   1342 ; skipping iCode since result will be rematerialized
                                   1343 ; genIPush
      0083E8 1E 23            [ 2] 1344 	ldw	x, (0x23, sp)
      0083EA 89               [ 2] 1345 	pushw	x
                           0002EE  1346 	Smain$main$309 ==.
                                   1347 ; genIPush
      0083EB 4B CA            [ 1] 1348 	push	#<(___str_7+0)
                           0002F0  1349 	Smain$main$310 ==.
      0083ED 4B 80            [ 1] 1350 	push	#((___str_7+0) >> 8)
                           0002F2  1351 	Smain$main$311 ==.
                                   1352 ; genIPush
      0083EF 96               [ 1] 1353 	ldw	x, sp
      0083F0 1C 00 05         [ 2] 1354 	addw	x, #5
      0083F3 89               [ 2] 1355 	pushw	x
                           0002F7  1356 	Smain$main$312 ==.
                                   1357 ; genCall
      0083F4 CD A5 A7         [ 4] 1358 	call	_sprintf
      0083F7 5B 06            [ 2] 1359 	addw	sp, #6
                           0002FC  1360 	Smain$main$313 ==.
                           0002FC  1361 	Smain$main$314 ==.
                                   1362 ;	./src/main.c: 151: lcd_puts(text);
                                   1363 ; skipping iCode since result will be rematerialized
                                   1364 ; skipping iCode since result will be rematerialized
                                   1365 ; genIPush
      0083F9 96               [ 1] 1366 	ldw	x, sp
      0083FA 5C               [ 1] 1367 	incw	x
      0083FB 89               [ 2] 1368 	pushw	x
                           0002FF  1369 	Smain$main$315 ==.
                                   1370 ; genCall
      0083FC CD 89 73         [ 4] 1371 	call	_lcd_puts
      0083FF 85               [ 2] 1372 	popw	x
                           000303  1373 	Smain$main$316 ==.
                           000303  1374 	Smain$main$317 ==.
                           000303  1375 	Smain$main$318 ==.
                                   1376 ;	./src/main.c: 156: if (stavty == 1  ) {
                                   1377 ; genCmpEQorNE
      008400 1E 27            [ 2] 1378 	ldw	x, (0x27, sp)
      008402 5A               [ 2] 1379 	decw	x
      008403 26 0B            [ 1] 1380 	jrne	00272$
      008405 1E 25            [ 2] 1381 	ldw	x, (0x25, sp)
      008407 26 07            [ 1] 1382 	jrne	00272$
      008409 A6 01            [ 1] 1383 	ld	a, #0x01
      00840B 6B 2D            [ 1] 1384 	ld	(0x2d, sp), a
      00840D CC 84 12         [ 2] 1385 	jp	00273$
      008410                       1386 00272$:
      008410 0F 2D            [ 1] 1387 	clr	(0x2d, sp)
      008412                       1388 00273$:
                           000315  1389 	Smain$main$319 ==.
                           000315  1390 	Smain$main$320 ==.
                                   1391 ;	./src/main.c: 167: if (stavty == 2 ) {
                                   1392 ; genCmpEQorNE
      008412 1E 27            [ 2] 1393 	ldw	x, (0x27, sp)
      008414 A3 00 02         [ 2] 1394 	cpw	x, #0x0002
      008417 26 0B            [ 1] 1395 	jrne	00275$
      008419 1E 25            [ 2] 1396 	ldw	x, (0x25, sp)
      00841B 26 07            [ 1] 1397 	jrne	00275$
      00841D A6 01            [ 1] 1398 	ld	a, #0x01
      00841F 6B 2E            [ 1] 1399 	ld	(0x2e, sp), a
      008421 CC 84 26         [ 2] 1400 	jp	00276$
      008424                       1401 00275$:
      008424 0F 2E            [ 1] 1402 	clr	(0x2e, sp)
      008426                       1403 00276$:
                           000329  1404 	Smain$main$321 ==.
                           000329  1405 	Smain$main$322 ==.
                                   1406 ;	./src/main.c: 184: if (stavty == 3 ) {
                                   1407 ; genCmpEQorNE
      008426 1E 27            [ 2] 1408 	ldw	x, (0x27, sp)
      008428 A3 00 03         [ 2] 1409 	cpw	x, #0x0003
      00842B 26 0B            [ 1] 1410 	jrne	00278$
      00842D 1E 25            [ 2] 1411 	ldw	x, (0x25, sp)
      00842F 26 07            [ 1] 1412 	jrne	00278$
      008431 A6 01            [ 1] 1413 	ld	a, #0x01
      008433 6B 2F            [ 1] 1414 	ld	(0x2f, sp), a
      008435 CC 84 3A         [ 2] 1415 	jp	00279$
      008438                       1416 00278$:
      008438 0F 2F            [ 1] 1417 	clr	(0x2f, sp)
      00843A                       1418 00279$:
                           00033D  1419 	Smain$main$323 ==.
                           00033D  1420 	Smain$main$324 ==.
                                   1421 ;	./src/main.c: 154: if (random == 0 ) {
                                   1422 ; genIfx
      00843A 1E 29            [ 2] 1423 	ldw	x, (0x29, sp)
      00843C 27 03            [ 1] 1424 	jreq	00280$
      00843E CC 85 6C         [ 2] 1425 	jp	00121$
      008441                       1426 00280$:
                           000344  1427 	Smain$main$325 ==.
                           000344  1428 	Smain$main$326 ==.
                                   1429 ;	./src/main.c: 156: if (stavty == 1  ) {
                                   1430 ; genIfx
      008441 0D 2D            [ 1] 1431 	tnz	(0x2d, sp)
      008443 26 03            [ 1] 1432 	jrne	00281$
      008445 CC 84 82         [ 2] 1433 	jp	00115$
      008448                       1434 00281$:
                           00034B  1435 	Smain$main$327 ==.
                           00034B  1436 	Smain$main$328 ==.
                                   1437 ;	./src/main.c: 157: lcd_gotoxy(14 , 3);
                                   1438 ; genIPush
      008448 4B 03            [ 1] 1439 	push	#0x03
                           00034D  1440 	Smain$main$329 ==.
                                   1441 ; genIPush
      00844A 4B 0E            [ 1] 1442 	push	#0x0e
                           00034F  1443 	Smain$main$330 ==.
                                   1444 ; genCall
      00844C CD 8A 0B         [ 4] 1445 	call	_lcd_gotoxy
      00844F 85               [ 2] 1446 	popw	x
                           000353  1447 	Smain$main$331 ==.
                           000353  1448 	Smain$main$332 ==.
                                   1449 ;	./src/main.c: 158: sprintf(text,"remiza");
                                   1450 ; skipping iCode since result will be rematerialized
                                   1451 ; skipping iCode since result will be rematerialized
                                   1452 ; skipping iCode since result will be rematerialized
                                   1453 ; skipping iCode since result will be rematerialized
                                   1454 ; genIPush
      008450 4B CE            [ 1] 1455 	push	#<(___str_8+0)
                           000355  1456 	Smain$main$333 ==.
      008452 4B 80            [ 1] 1457 	push	#((___str_8+0) >> 8)
                           000357  1458 	Smain$main$334 ==.
                                   1459 ; genIPush
      008454 96               [ 1] 1460 	ldw	x, sp
      008455 1C 00 03         [ 2] 1461 	addw	x, #3
      008458 89               [ 2] 1462 	pushw	x
                           00035C  1463 	Smain$main$335 ==.
                                   1464 ; genCall
      008459 CD A5 A7         [ 4] 1465 	call	_sprintf
      00845C 5B 04            [ 2] 1466 	addw	sp, #4
                           000361  1467 	Smain$main$336 ==.
                           000361  1468 	Smain$main$337 ==.
                                   1469 ;	./src/main.c: 159: lcd_puts(text);
                                   1470 ; skipping iCode since result will be rematerialized
                                   1471 ; skipping iCode since result will be rematerialized
                                   1472 ; genIPush
      00845E 96               [ 1] 1473 	ldw	x, sp
      00845F 5C               [ 1] 1474 	incw	x
      008460 89               [ 2] 1475 	pushw	x
                           000364  1476 	Smain$main$338 ==.
                                   1477 ; genCall
      008461 CD 89 73         [ 4] 1478 	call	_lcd_puts
      008464 85               [ 2] 1479 	popw	x
                           000368  1480 	Smain$main$339 ==.
                           000368  1481 	Smain$main$340 ==.
                                   1482 ;	./src/main.c: 161: lcd_gotoxy(14 , 2);
                                   1483 ; genIPush
      008465 4B 02            [ 1] 1484 	push	#0x02
                           00036A  1485 	Smain$main$341 ==.
                                   1486 ; genIPush
      008467 4B 0E            [ 1] 1487 	push	#0x0e
                           00036C  1488 	Smain$main$342 ==.
                                   1489 ; genCall
      008469 CD 8A 0B         [ 4] 1490 	call	_lcd_gotoxy
      00846C 85               [ 2] 1491 	popw	x
                           000370  1492 	Smain$main$343 ==.
                           000370  1493 	Smain$main$344 ==.
                                   1494 ;	./src/main.c: 162: sprintf(text,"      ");
                                   1495 ; skipping iCode since result will be rematerialized
                                   1496 ; skipping iCode since result will be rematerialized
                                   1497 ; skipping iCode since result will be rematerialized
                                   1498 ; skipping iCode since result will be rematerialized
                                   1499 ; genIPush
      00846D 4B D5            [ 1] 1500 	push	#<(___str_9+0)
                           000372  1501 	Smain$main$345 ==.
      00846F 4B 80            [ 1] 1502 	push	#((___str_9+0) >> 8)
                           000374  1503 	Smain$main$346 ==.
                                   1504 ; genIPush
      008471 96               [ 1] 1505 	ldw	x, sp
      008472 1C 00 03         [ 2] 1506 	addw	x, #3
      008475 89               [ 2] 1507 	pushw	x
                           000379  1508 	Smain$main$347 ==.
                                   1509 ; genCall
      008476 CD A5 A7         [ 4] 1510 	call	_sprintf
      008479 5B 04            [ 2] 1511 	addw	sp, #4
                           00037E  1512 	Smain$main$348 ==.
                           00037E  1513 	Smain$main$349 ==.
                                   1514 ;	./src/main.c: 163: lcd_puts(text);
                                   1515 ; skipping iCode since result will be rematerialized
                                   1516 ; skipping iCode since result will be rematerialized
                                   1517 ; genIPush
      00847B 96               [ 1] 1518 	ldw	x, sp
      00847C 5C               [ 1] 1519 	incw	x
      00847D 89               [ 2] 1520 	pushw	x
                           000381  1521 	Smain$main$350 ==.
                                   1522 ; genCall
      00847E CD 89 73         [ 4] 1523 	call	_lcd_puts
      008481 85               [ 2] 1524 	popw	x
                           000385  1525 	Smain$main$351 ==.
                           000385  1526 	Smain$main$352 ==.
                                   1527 ; genLabel
      008482                       1528 00115$:
                           000385  1529 	Smain$main$353 ==.
                                   1530 ;	./src/main.c: 167: if (stavty == 2 ) {
                                   1531 ; genIfx
      008482 0D 2E            [ 1] 1532 	tnz	(0x2e, sp)
      008484 26 03            [ 1] 1533 	jrne	00282$
      008486 CC 85 06         [ 2] 1534 	jp	00117$
      008489                       1535 00282$:
                           00038C  1536 	Smain$main$354 ==.
                           00038C  1537 	Smain$main$355 ==.
                                   1538 ;	./src/main.c: 168: lcd_gotoxy(14 , 2);
                                   1539 ; genIPush
      008489 4B 02            [ 1] 1540 	push	#0x02
                           00038E  1541 	Smain$main$356 ==.
                                   1542 ; genIPush
      00848B 4B 0E            [ 1] 1543 	push	#0x0e
                           000390  1544 	Smain$main$357 ==.
                                   1545 ; genCall
      00848D CD 8A 0B         [ 4] 1546 	call	_lcd_gotoxy
      008490 85               [ 2] 1547 	popw	x
                           000394  1548 	Smain$main$358 ==.
                           000394  1549 	Smain$main$359 ==.
                                   1550 ;	./src/main.c: 169: sprintf(text,"vyhra");
                                   1551 ; skipping iCode since result will be rematerialized
                                   1552 ; skipping iCode since result will be rematerialized
                                   1553 ; skipping iCode since result will be rematerialized
                                   1554 ; skipping iCode since result will be rematerialized
                                   1555 ; genIPush
      008491 4B DC            [ 1] 1556 	push	#<(___str_10+0)
                           000396  1557 	Smain$main$360 ==.
      008493 4B 80            [ 1] 1558 	push	#((___str_10+0) >> 8)
                           000398  1559 	Smain$main$361 ==.
                                   1560 ; genIPush
      008495 96               [ 1] 1561 	ldw	x, sp
      008496 1C 00 03         [ 2] 1562 	addw	x, #3
      008499 89               [ 2] 1563 	pushw	x
                           00039D  1564 	Smain$main$362 ==.
                                   1565 ; genCall
      00849A CD A5 A7         [ 4] 1566 	call	_sprintf
      00849D 5B 04            [ 2] 1567 	addw	sp, #4
                           0003A2  1568 	Smain$main$363 ==.
                           0003A2  1569 	Smain$main$364 ==.
                                   1570 ;	./src/main.c: 170: lcd_puts(text);
                                   1571 ; skipping iCode since result will be rematerialized
                                   1572 ; skipping iCode since result will be rematerialized
                                   1573 ; genIPush
      00849F 96               [ 1] 1574 	ldw	x, sp
      0084A0 5C               [ 1] 1575 	incw	x
      0084A1 89               [ 2] 1576 	pushw	x
                           0003A5  1577 	Smain$main$365 ==.
                                   1578 ; genCall
      0084A2 CD 89 73         [ 4] 1579 	call	_lcd_puts
      0084A5 85               [ 2] 1580 	popw	x
                           0003A9  1581 	Smain$main$366 ==.
                           0003A9  1582 	Smain$main$367 ==.
                                   1583 ;	./src/main.c: 172: lcd_gotoxy(14 , 3);
                                   1584 ; genIPush
      0084A6 4B 03            [ 1] 1585 	push	#0x03
                           0003AB  1586 	Smain$main$368 ==.
                                   1587 ; genIPush
      0084A8 4B 0E            [ 1] 1588 	push	#0x0e
                           0003AD  1589 	Smain$main$369 ==.
                                   1590 ; genCall
      0084AA CD 8A 0B         [ 4] 1591 	call	_lcd_gotoxy
      0084AD 85               [ 2] 1592 	popw	x
                           0003B1  1593 	Smain$main$370 ==.
                           0003B1  1594 	Smain$main$371 ==.
                                   1595 ;	./src/main.c: 173: sprintf(text,"      ");
                                   1596 ; skipping iCode since result will be rematerialized
                                   1597 ; skipping iCode since result will be rematerialized
                                   1598 ; skipping iCode since result will be rematerialized
                                   1599 ; skipping iCode since result will be rematerialized
                                   1600 ; genIPush
      0084AE 4B D5            [ 1] 1601 	push	#<(___str_9+0)
                           0003B3  1602 	Smain$main$372 ==.
      0084B0 4B 80            [ 1] 1603 	push	#((___str_9+0) >> 8)
                           0003B5  1604 	Smain$main$373 ==.
                                   1605 ; genIPush
      0084B2 96               [ 1] 1606 	ldw	x, sp
      0084B3 1C 00 03         [ 2] 1607 	addw	x, #3
      0084B6 89               [ 2] 1608 	pushw	x
                           0003BA  1609 	Smain$main$374 ==.
                                   1610 ; genCall
      0084B7 CD A5 A7         [ 4] 1611 	call	_sprintf
      0084BA 5B 04            [ 2] 1612 	addw	sp, #4
                           0003BF  1613 	Smain$main$375 ==.
                           0003BF  1614 	Smain$main$376 ==.
                                   1615 ;	./src/main.c: 174: lcd_puts(text);
                                   1616 ; skipping iCode since result will be rematerialized
                                   1617 ; skipping iCode since result will be rematerialized
                                   1618 ; genIPush
      0084BC 96               [ 1] 1619 	ldw	x, sp
      0084BD 5C               [ 1] 1620 	incw	x
      0084BE 89               [ 2] 1621 	pushw	x
                           0003C2  1622 	Smain$main$377 ==.
                                   1623 ; genCall
      0084BF CD 89 73         [ 4] 1624 	call	_lcd_puts
      0084C2 85               [ 2] 1625 	popw	x
                           0003C6  1626 	Smain$main$378 ==.
                           0003C6  1627 	Smain$main$379 ==.
                                   1628 ;	./src/main.c: 175: bodyty = bodyty +1;
                                   1629 ; genCast
                                   1630 ; genAssign
      0084C3 1E 23            [ 2] 1631 	ldw	x, (0x23, sp)
                                   1632 ; genPlus
      0084C5 5C               [ 1] 1633 	incw	x
                                   1634 ; genCast
                                   1635 ; genAssign
                                   1636 ; genAssign
      0084C6 1F 23            [ 2] 1637 	ldw	(0x23, sp), x
                           0003CB  1638 	Smain$main$380 ==.
                                   1639 ;	./src/main.c: 177: lcd_gotoxy(10 , 2);
                                   1640 ; genIPush
      0084C8 4B 02            [ 1] 1641 	push	#0x02
                           0003CD  1642 	Smain$main$381 ==.
                                   1643 ; genIPush
      0084CA 4B 0A            [ 1] 1644 	push	#0x0a
                           0003CF  1645 	Smain$main$382 ==.
                                   1646 ; genCall
      0084CC CD 8A 0B         [ 4] 1647 	call	_lcd_gotoxy
      0084CF 85               [ 2] 1648 	popw	x
                           0003D3  1649 	Smain$main$383 ==.
                           0003D3  1650 	Smain$main$384 ==.
                                   1651 ;	./src/main.c: 178: sprintf(text,"%1u",bodyty);
                                   1652 ; skipping iCode since result will be rematerialized
                                   1653 ; skipping iCode since result will be rematerialized
                                   1654 ; skipping iCode since result will be rematerialized
                                   1655 ; skipping iCode since result will be rematerialized
                                   1656 ; genIPush
      0084D0 1E 23            [ 2] 1657 	ldw	x, (0x23, sp)
      0084D2 89               [ 2] 1658 	pushw	x
                           0003D6  1659 	Smain$main$385 ==.
                                   1660 ; genIPush
      0084D3 4B CA            [ 1] 1661 	push	#<(___str_7+0)
                           0003D8  1662 	Smain$main$386 ==.
      0084D5 4B 80            [ 1] 1663 	push	#((___str_7+0) >> 8)
                           0003DA  1664 	Smain$main$387 ==.
                                   1665 ; genIPush
      0084D7 96               [ 1] 1666 	ldw	x, sp
      0084D8 1C 00 05         [ 2] 1667 	addw	x, #5
      0084DB 89               [ 2] 1668 	pushw	x
                           0003DF  1669 	Smain$main$388 ==.
                                   1670 ; genCall
      0084DC CD A5 A7         [ 4] 1671 	call	_sprintf
      0084DF 5B 06            [ 2] 1672 	addw	sp, #6
                           0003E4  1673 	Smain$main$389 ==.
                           0003E4  1674 	Smain$main$390 ==.
                                   1675 ;	./src/main.c: 179: lcd_puts(text);
                                   1676 ; skipping iCode since result will be rematerialized
                                   1677 ; skipping iCode since result will be rematerialized
                                   1678 ; genIPush
      0084E1 96               [ 1] 1679 	ldw	x, sp
      0084E2 5C               [ 1] 1680 	incw	x
      0084E3 89               [ 2] 1681 	pushw	x
                           0003E7  1682 	Smain$main$391 ==.
                                   1683 ; genCall
      0084E4 CD 89 73         [ 4] 1684 	call	_lcd_puts
      0084E7 85               [ 2] 1685 	popw	x
                           0003EB  1686 	Smain$main$392 ==.
                           0003EB  1687 	Smain$main$393 ==.
                                   1688 ;	./src/main.c: 180: G4_HIGH;
                                   1689 ; genIPush
      0084E8 4B 10            [ 1] 1690 	push	#0x10
                           0003ED  1691 	Smain$main$394 ==.
                                   1692 ; genIPush
      0084EA 4B 1E            [ 1] 1693 	push	#0x1e
                           0003EF  1694 	Smain$main$395 ==.
      0084EC 4B 50            [ 1] 1695 	push	#0x50
                           0003F1  1696 	Smain$main$396 ==.
                                   1697 ; genCall
      0084EE CD 96 9C         [ 4] 1698 	call	_GPIO_WriteHigh
      0084F1 5B 03            [ 2] 1699 	addw	sp, #3
                           0003F6  1700 	Smain$main$397 ==.
                           0003F6  1701 	Smain$main$398 ==.
                                   1702 ;	./src/main.c: 181: delay_ms(50);
                                   1703 ; genIPush
      0084F3 4B 32            [ 1] 1704 	push	#0x32
                           0003F8  1705 	Smain$main$399 ==.
      0084F5 4B 00            [ 1] 1706 	push	#0x00
                           0003FA  1707 	Smain$main$400 ==.
                                   1708 ; genCall
      0084F7 CD 81 42         [ 4] 1709 	call	_delay_ms
      0084FA 85               [ 2] 1710 	popw	x
                           0003FE  1711 	Smain$main$401 ==.
                           0003FE  1712 	Smain$main$402 ==.
                                   1713 ;	./src/main.c: 182: G4_LOW;
                                   1714 ; genIPush
      0084FB 4B 10            [ 1] 1715 	push	#0x10
                           000400  1716 	Smain$main$403 ==.
                                   1717 ; genIPush
      0084FD 4B 1E            [ 1] 1718 	push	#0x1e
                           000402  1719 	Smain$main$404 ==.
      0084FF 4B 50            [ 1] 1720 	push	#0x50
                           000404  1721 	Smain$main$405 ==.
                                   1722 ; genCall
      008501 CD 96 A3         [ 4] 1723 	call	_GPIO_WriteLow
      008504 5B 03            [ 2] 1724 	addw	sp, #3
                           000409  1725 	Smain$main$406 ==.
                           000409  1726 	Smain$main$407 ==.
                                   1727 ; genLabel
      008506                       1728 00117$:
                           000409  1729 	Smain$main$408 ==.
                                   1730 ;	./src/main.c: 184: if (stavty == 3 ) {
                                   1731 ; genIfx
      008506 0D 2F            [ 1] 1732 	tnz	(0x2f, sp)
      008508 26 03            [ 1] 1733 	jrne	00283$
      00850A CC 85 6C         [ 2] 1734 	jp	00121$
      00850D                       1735 00283$:
                           000410  1736 	Smain$main$409 ==.
                           000410  1737 	Smain$main$410 ==.
                                   1738 ;	./src/main.c: 185: lcd_gotoxy(14 , 3);
                                   1739 ; genIPush
      00850D 4B 03            [ 1] 1740 	push	#0x03
                           000412  1741 	Smain$main$411 ==.
                                   1742 ; genIPush
      00850F 4B 0E            [ 1] 1743 	push	#0x0e
                           000414  1744 	Smain$main$412 ==.
                                   1745 ; genCall
      008511 CD 8A 0B         [ 4] 1746 	call	_lcd_gotoxy
      008514 85               [ 2] 1747 	popw	x
                           000418  1748 	Smain$main$413 ==.
                           000418  1749 	Smain$main$414 ==.
                                   1750 ;	./src/main.c: 186: sprintf(text,"vyhra");
                                   1751 ; skipping iCode since result will be rematerialized
                                   1752 ; skipping iCode since result will be rematerialized
                                   1753 ; skipping iCode since result will be rematerialized
                                   1754 ; skipping iCode since result will be rematerialized
                                   1755 ; genIPush
      008515 4B DC            [ 1] 1756 	push	#<(___str_10+0)
                           00041A  1757 	Smain$main$415 ==.
      008517 4B 80            [ 1] 1758 	push	#((___str_10+0) >> 8)
                           00041C  1759 	Smain$main$416 ==.
                                   1760 ; genIPush
      008519 96               [ 1] 1761 	ldw	x, sp
      00851A 1C 00 03         [ 2] 1762 	addw	x, #3
      00851D 89               [ 2] 1763 	pushw	x
                           000421  1764 	Smain$main$417 ==.
                                   1765 ; genCall
      00851E CD A5 A7         [ 4] 1766 	call	_sprintf
      008521 5B 04            [ 2] 1767 	addw	sp, #4
                           000426  1768 	Smain$main$418 ==.
                           000426  1769 	Smain$main$419 ==.
                                   1770 ;	./src/main.c: 187: lcd_puts(text);
                                   1771 ; skipping iCode since result will be rematerialized
                                   1772 ; skipping iCode since result will be rematerialized
                                   1773 ; genIPush
      008523 96               [ 1] 1774 	ldw	x, sp
      008524 5C               [ 1] 1775 	incw	x
      008525 89               [ 2] 1776 	pushw	x
                           000429  1777 	Smain$main$420 ==.
                                   1778 ; genCall
      008526 CD 89 73         [ 4] 1779 	call	_lcd_puts
      008529 85               [ 2] 1780 	popw	x
                           00042D  1781 	Smain$main$421 ==.
                           00042D  1782 	Smain$main$422 ==.
                                   1783 ;	./src/main.c: 188: bodystm = bodystm +1;
                                   1784 ; genCast
                                   1785 ; genAssign
      00852A 1E 21            [ 2] 1786 	ldw	x, (0x21, sp)
                                   1787 ; genPlus
      00852C 5C               [ 1] 1788 	incw	x
                                   1789 ; genCast
                                   1790 ; genAssign
                                   1791 ; genAssign
      00852D 1F 21            [ 2] 1792 	ldw	(0x21, sp), x
                           000432  1793 	Smain$main$423 ==.
                                   1794 ;	./src/main.c: 190: lcd_gotoxy(14 , 2);
                                   1795 ; genIPush
      00852F 4B 02            [ 1] 1796 	push	#0x02
                           000434  1797 	Smain$main$424 ==.
                                   1798 ; genIPush
      008531 4B 0E            [ 1] 1799 	push	#0x0e
                           000436  1800 	Smain$main$425 ==.
                                   1801 ; genCall
      008533 CD 8A 0B         [ 4] 1802 	call	_lcd_gotoxy
      008536 85               [ 2] 1803 	popw	x
                           00043A  1804 	Smain$main$426 ==.
                           00043A  1805 	Smain$main$427 ==.
                                   1806 ;	./src/main.c: 191: sprintf(text,"      ");
                                   1807 ; skipping iCode since result will be rematerialized
                                   1808 ; skipping iCode since result will be rematerialized
                                   1809 ; skipping iCode since result will be rematerialized
                                   1810 ; skipping iCode since result will be rematerialized
                                   1811 ; genIPush
      008537 4B D5            [ 1] 1812 	push	#<(___str_9+0)
                           00043C  1813 	Smain$main$428 ==.
      008539 4B 80            [ 1] 1814 	push	#((___str_9+0) >> 8)
                           00043E  1815 	Smain$main$429 ==.
                                   1816 ; genIPush
      00853B 96               [ 1] 1817 	ldw	x, sp
      00853C 1C 00 03         [ 2] 1818 	addw	x, #3
      00853F 89               [ 2] 1819 	pushw	x
                           000443  1820 	Smain$main$430 ==.
                                   1821 ; genCall
      008540 CD A5 A7         [ 4] 1822 	call	_sprintf
      008543 5B 04            [ 2] 1823 	addw	sp, #4
                           000448  1824 	Smain$main$431 ==.
                           000448  1825 	Smain$main$432 ==.
                                   1826 ;	./src/main.c: 192: lcd_puts(text);
                                   1827 ; skipping iCode since result will be rematerialized
                                   1828 ; skipping iCode since result will be rematerialized
                                   1829 ; genIPush
      008545 96               [ 1] 1830 	ldw	x, sp
      008546 5C               [ 1] 1831 	incw	x
      008547 89               [ 2] 1832 	pushw	x
                           00044B  1833 	Smain$main$433 ==.
                                   1834 ; genCall
      008548 CD 89 73         [ 4] 1835 	call	_lcd_puts
      00854B 85               [ 2] 1836 	popw	x
                           00044F  1837 	Smain$main$434 ==.
                           00044F  1838 	Smain$main$435 ==.
                                   1839 ;	./src/main.c: 194: lcd_gotoxy(10 , 3);
                                   1840 ; genIPush
      00854C 4B 03            [ 1] 1841 	push	#0x03
                           000451  1842 	Smain$main$436 ==.
                                   1843 ; genIPush
      00854E 4B 0A            [ 1] 1844 	push	#0x0a
                           000453  1845 	Smain$main$437 ==.
                                   1846 ; genCall
      008550 CD 8A 0B         [ 4] 1847 	call	_lcd_gotoxy
      008553 85               [ 2] 1848 	popw	x
                           000457  1849 	Smain$main$438 ==.
                           000457  1850 	Smain$main$439 ==.
                                   1851 ;	./src/main.c: 195: sprintf(text,"%1u",bodystm);
                                   1852 ; skipping iCode since result will be rematerialized
                                   1853 ; skipping iCode since result will be rematerialized
                                   1854 ; skipping iCode since result will be rematerialized
                                   1855 ; skipping iCode since result will be rematerialized
                                   1856 ; genIPush
      008554 1E 21            [ 2] 1857 	ldw	x, (0x21, sp)
      008556 89               [ 2] 1858 	pushw	x
                           00045A  1859 	Smain$main$440 ==.
                                   1860 ; genIPush
      008557 4B CA            [ 1] 1861 	push	#<(___str_7+0)
                           00045C  1862 	Smain$main$441 ==.
      008559 4B 80            [ 1] 1863 	push	#((___str_7+0) >> 8)
                           00045E  1864 	Smain$main$442 ==.
                                   1865 ; genIPush
      00855B 96               [ 1] 1866 	ldw	x, sp
      00855C 1C 00 05         [ 2] 1867 	addw	x, #5
      00855F 89               [ 2] 1868 	pushw	x
                           000463  1869 	Smain$main$443 ==.
                                   1870 ; genCall
      008560 CD A5 A7         [ 4] 1871 	call	_sprintf
      008563 5B 06            [ 2] 1872 	addw	sp, #6
                           000468  1873 	Smain$main$444 ==.
                           000468  1874 	Smain$main$445 ==.
                                   1875 ;	./src/main.c: 196: lcd_puts(text);
                                   1876 ; skipping iCode since result will be rematerialized
                                   1877 ; skipping iCode since result will be rematerialized
                                   1878 ; genIPush
      008565 96               [ 1] 1879 	ldw	x, sp
      008566 5C               [ 1] 1880 	incw	x
      008567 89               [ 2] 1881 	pushw	x
                           00046B  1882 	Smain$main$446 ==.
                                   1883 ; genCall
      008568 CD 89 73         [ 4] 1884 	call	_lcd_puts
      00856B 85               [ 2] 1885 	popw	x
                           00046F  1886 	Smain$main$447 ==.
                           00046F  1887 	Smain$main$448 ==.
                                   1888 ; genLabel
      00856C                       1889 00121$:
                           00046F  1890 	Smain$main$449 ==.
                                   1891 ;	./src/main.c: 201: if (random == 1) {
                                   1892 ; genIfx
      00856C 0D 2B            [ 1] 1893 	tnz	(0x2b, sp)
      00856E 26 03            [ 1] 1894 	jrne	00284$
      008570 CC 86 9E         [ 2] 1895 	jp	00129$
      008573                       1896 00284$:
                           000476  1897 	Smain$main$450 ==.
                           000476  1898 	Smain$main$451 ==.
                                   1899 ;	./src/main.c: 203: if (stavty == 1  ) {
                                   1900 ; genIfx
      008573 0D 2D            [ 1] 1901 	tnz	(0x2d, sp)
      008575 26 03            [ 1] 1902 	jrne	00285$
      008577 CC 85 D9         [ 2] 1903 	jp	00123$
      00857A                       1904 00285$:
                           00047D  1905 	Smain$main$452 ==.
                           00047D  1906 	Smain$main$453 ==.
                                   1907 ;	./src/main.c: 204: lcd_gotoxy(14 , 3);
                                   1908 ; genIPush
      00857A 4B 03            [ 1] 1909 	push	#0x03
                           00047F  1910 	Smain$main$454 ==.
                                   1911 ; genIPush
      00857C 4B 0E            [ 1] 1912 	push	#0x0e
                           000481  1913 	Smain$main$455 ==.
                                   1914 ; genCall
      00857E CD 8A 0B         [ 4] 1915 	call	_lcd_gotoxy
      008581 85               [ 2] 1916 	popw	x
                           000485  1917 	Smain$main$456 ==.
                           000485  1918 	Smain$main$457 ==.
                                   1919 ;	./src/main.c: 205: sprintf(text,"vyhra");
                                   1920 ; skipping iCode since result will be rematerialized
                                   1921 ; skipping iCode since result will be rematerialized
                                   1922 ; skipping iCode since result will be rematerialized
                                   1923 ; skipping iCode since result will be rematerialized
                                   1924 ; genIPush
      008582 4B DC            [ 1] 1925 	push	#<(___str_10+0)
                           000487  1926 	Smain$main$458 ==.
      008584 4B 80            [ 1] 1927 	push	#((___str_10+0) >> 8)
                           000489  1928 	Smain$main$459 ==.
                                   1929 ; genIPush
      008586 96               [ 1] 1930 	ldw	x, sp
      008587 1C 00 03         [ 2] 1931 	addw	x, #3
      00858A 89               [ 2] 1932 	pushw	x
                           00048E  1933 	Smain$main$460 ==.
                                   1934 ; genCall
      00858B CD A5 A7         [ 4] 1935 	call	_sprintf
      00858E 5B 04            [ 2] 1936 	addw	sp, #4
                           000493  1937 	Smain$main$461 ==.
                           000493  1938 	Smain$main$462 ==.
                                   1939 ;	./src/main.c: 206: lcd_puts(text);
                                   1940 ; skipping iCode since result will be rematerialized
                                   1941 ; skipping iCode since result will be rematerialized
                                   1942 ; genIPush
      008590 96               [ 1] 1943 	ldw	x, sp
      008591 5C               [ 1] 1944 	incw	x
      008592 89               [ 2] 1945 	pushw	x
                           000496  1946 	Smain$main$463 ==.
                                   1947 ; genCall
      008593 CD 89 73         [ 4] 1948 	call	_lcd_puts
      008596 85               [ 2] 1949 	popw	x
                           00049A  1950 	Smain$main$464 ==.
                           00049A  1951 	Smain$main$465 ==.
                                   1952 ;	./src/main.c: 207: bodystm = bodystm +1;
                                   1953 ; genCast
                                   1954 ; genAssign
      008597 1E 21            [ 2] 1955 	ldw	x, (0x21, sp)
                                   1956 ; genPlus
      008599 5C               [ 1] 1957 	incw	x
                                   1958 ; genCast
                                   1959 ; genAssign
                                   1960 ; genAssign
      00859A 1F 21            [ 2] 1961 	ldw	(0x21, sp), x
                           00049F  1962 	Smain$main$466 ==.
                                   1963 ;	./src/main.c: 209: lcd_gotoxy(14 , 2);
                                   1964 ; genIPush
      00859C 4B 02            [ 1] 1965 	push	#0x02
                           0004A1  1966 	Smain$main$467 ==.
                                   1967 ; genIPush
      00859E 4B 0E            [ 1] 1968 	push	#0x0e
                           0004A3  1969 	Smain$main$468 ==.
                                   1970 ; genCall
      0085A0 CD 8A 0B         [ 4] 1971 	call	_lcd_gotoxy
      0085A3 85               [ 2] 1972 	popw	x
                           0004A7  1973 	Smain$main$469 ==.
                           0004A7  1974 	Smain$main$470 ==.
                                   1975 ;	./src/main.c: 210: sprintf(text,"      ");
                                   1976 ; skipping iCode since result will be rematerialized
                                   1977 ; skipping iCode since result will be rematerialized
                                   1978 ; skipping iCode since result will be rematerialized
                                   1979 ; skipping iCode since result will be rematerialized
                                   1980 ; genIPush
      0085A4 4B D5            [ 1] 1981 	push	#<(___str_9+0)
                           0004A9  1982 	Smain$main$471 ==.
      0085A6 4B 80            [ 1] 1983 	push	#((___str_9+0) >> 8)
                           0004AB  1984 	Smain$main$472 ==.
                                   1985 ; genIPush
      0085A8 96               [ 1] 1986 	ldw	x, sp
      0085A9 1C 00 03         [ 2] 1987 	addw	x, #3
      0085AC 89               [ 2] 1988 	pushw	x
                           0004B0  1989 	Smain$main$473 ==.
                                   1990 ; genCall
      0085AD CD A5 A7         [ 4] 1991 	call	_sprintf
      0085B0 5B 04            [ 2] 1992 	addw	sp, #4
                           0004B5  1993 	Smain$main$474 ==.
                           0004B5  1994 	Smain$main$475 ==.
                                   1995 ;	./src/main.c: 211: lcd_puts(text);
                                   1996 ; skipping iCode since result will be rematerialized
                                   1997 ; skipping iCode since result will be rematerialized
                                   1998 ; genIPush
      0085B2 96               [ 1] 1999 	ldw	x, sp
      0085B3 5C               [ 1] 2000 	incw	x
      0085B4 89               [ 2] 2001 	pushw	x
                           0004B8  2002 	Smain$main$476 ==.
                                   2003 ; genCall
      0085B5 CD 89 73         [ 4] 2004 	call	_lcd_puts
      0085B8 85               [ 2] 2005 	popw	x
                           0004BC  2006 	Smain$main$477 ==.
                           0004BC  2007 	Smain$main$478 ==.
                                   2008 ;	./src/main.c: 213: lcd_gotoxy(10 , 3);
                                   2009 ; genIPush
      0085B9 4B 03            [ 1] 2010 	push	#0x03
                           0004BE  2011 	Smain$main$479 ==.
                                   2012 ; genIPush
      0085BB 4B 0A            [ 1] 2013 	push	#0x0a
                           0004C0  2014 	Smain$main$480 ==.
                                   2015 ; genCall
      0085BD CD 8A 0B         [ 4] 2016 	call	_lcd_gotoxy
      0085C0 85               [ 2] 2017 	popw	x
                           0004C4  2018 	Smain$main$481 ==.
                           0004C4  2019 	Smain$main$482 ==.
                                   2020 ;	./src/main.c: 214: sprintf(text,"%1u",bodystm);
                                   2021 ; skipping iCode since result will be rematerialized
                                   2022 ; skipping iCode since result will be rematerialized
                                   2023 ; skipping iCode since result will be rematerialized
                                   2024 ; skipping iCode since result will be rematerialized
                                   2025 ; genIPush
      0085C1 1E 21            [ 2] 2026 	ldw	x, (0x21, sp)
      0085C3 89               [ 2] 2027 	pushw	x
                           0004C7  2028 	Smain$main$483 ==.
                                   2029 ; genIPush
      0085C4 4B CA            [ 1] 2030 	push	#<(___str_7+0)
                           0004C9  2031 	Smain$main$484 ==.
      0085C6 4B 80            [ 1] 2032 	push	#((___str_7+0) >> 8)
                           0004CB  2033 	Smain$main$485 ==.
                                   2034 ; genIPush
      0085C8 96               [ 1] 2035 	ldw	x, sp
      0085C9 1C 00 05         [ 2] 2036 	addw	x, #5
      0085CC 89               [ 2] 2037 	pushw	x
                           0004D0  2038 	Smain$main$486 ==.
                                   2039 ; genCall
      0085CD CD A5 A7         [ 4] 2040 	call	_sprintf
      0085D0 5B 06            [ 2] 2041 	addw	sp, #6
                           0004D5  2042 	Smain$main$487 ==.
                           0004D5  2043 	Smain$main$488 ==.
                                   2044 ;	./src/main.c: 215: lcd_puts(text);
                                   2045 ; skipping iCode since result will be rematerialized
                                   2046 ; skipping iCode since result will be rematerialized
                                   2047 ; genIPush
      0085D2 96               [ 1] 2048 	ldw	x, sp
      0085D3 5C               [ 1] 2049 	incw	x
      0085D4 89               [ 2] 2050 	pushw	x
                           0004D8  2051 	Smain$main$489 ==.
                                   2052 ; genCall
      0085D5 CD 89 73         [ 4] 2053 	call	_lcd_puts
      0085D8 85               [ 2] 2054 	popw	x
                           0004DC  2055 	Smain$main$490 ==.
                           0004DC  2056 	Smain$main$491 ==.
                                   2057 ; genLabel
      0085D9                       2058 00123$:
                           0004DC  2059 	Smain$main$492 ==.
                                   2060 ;	./src/main.c: 217: if (stavty == 2 ) {
                                   2061 ; genIfx
      0085D9 0D 2E            [ 1] 2062 	tnz	(0x2e, sp)
      0085DB 26 03            [ 1] 2063 	jrne	00286$
      0085DD CC 86 1A         [ 2] 2064 	jp	00125$
      0085E0                       2065 00286$:
                           0004E3  2066 	Smain$main$493 ==.
                           0004E3  2067 	Smain$main$494 ==.
                                   2068 ;	./src/main.c: 218: lcd_gotoxy(14 , 3);
                                   2069 ; genIPush
      0085E0 4B 03            [ 1] 2070 	push	#0x03
                           0004E5  2071 	Smain$main$495 ==.
                                   2072 ; genIPush
      0085E2 4B 0E            [ 1] 2073 	push	#0x0e
                           0004E7  2074 	Smain$main$496 ==.
                                   2075 ; genCall
      0085E4 CD 8A 0B         [ 4] 2076 	call	_lcd_gotoxy
      0085E7 85               [ 2] 2077 	popw	x
                           0004EB  2078 	Smain$main$497 ==.
                           0004EB  2079 	Smain$main$498 ==.
                                   2080 ;	./src/main.c: 219: sprintf(text,"remiza");
                                   2081 ; skipping iCode since result will be rematerialized
                                   2082 ; skipping iCode since result will be rematerialized
                                   2083 ; skipping iCode since result will be rematerialized
                                   2084 ; skipping iCode since result will be rematerialized
                                   2085 ; genIPush
      0085E8 4B CE            [ 1] 2086 	push	#<(___str_8+0)
                           0004ED  2087 	Smain$main$499 ==.
      0085EA 4B 80            [ 1] 2088 	push	#((___str_8+0) >> 8)
                           0004EF  2089 	Smain$main$500 ==.
                                   2090 ; genIPush
      0085EC 96               [ 1] 2091 	ldw	x, sp
      0085ED 1C 00 03         [ 2] 2092 	addw	x, #3
      0085F0 89               [ 2] 2093 	pushw	x
                           0004F4  2094 	Smain$main$501 ==.
                                   2095 ; genCall
      0085F1 CD A5 A7         [ 4] 2096 	call	_sprintf
      0085F4 5B 04            [ 2] 2097 	addw	sp, #4
                           0004F9  2098 	Smain$main$502 ==.
                           0004F9  2099 	Smain$main$503 ==.
                                   2100 ;	./src/main.c: 220: lcd_puts(text);
                                   2101 ; skipping iCode since result will be rematerialized
                                   2102 ; skipping iCode since result will be rematerialized
                                   2103 ; genIPush
      0085F6 96               [ 1] 2104 	ldw	x, sp
      0085F7 5C               [ 1] 2105 	incw	x
      0085F8 89               [ 2] 2106 	pushw	x
                           0004FC  2107 	Smain$main$504 ==.
                                   2108 ; genCall
      0085F9 CD 89 73         [ 4] 2109 	call	_lcd_puts
      0085FC 85               [ 2] 2110 	popw	x
                           000500  2111 	Smain$main$505 ==.
                           000500  2112 	Smain$main$506 ==.
                                   2113 ;	./src/main.c: 222: lcd_gotoxy(14 , 2);
                                   2114 ; genIPush
      0085FD 4B 02            [ 1] 2115 	push	#0x02
                           000502  2116 	Smain$main$507 ==.
                                   2117 ; genIPush
      0085FF 4B 0E            [ 1] 2118 	push	#0x0e
                           000504  2119 	Smain$main$508 ==.
                                   2120 ; genCall
      008601 CD 8A 0B         [ 4] 2121 	call	_lcd_gotoxy
      008604 85               [ 2] 2122 	popw	x
                           000508  2123 	Smain$main$509 ==.
                           000508  2124 	Smain$main$510 ==.
                                   2125 ;	./src/main.c: 223: sprintf(text,"      ");
                                   2126 ; skipping iCode since result will be rematerialized
                                   2127 ; skipping iCode since result will be rematerialized
                                   2128 ; skipping iCode since result will be rematerialized
                                   2129 ; skipping iCode since result will be rematerialized
                                   2130 ; genIPush
      008605 4B D5            [ 1] 2131 	push	#<(___str_9+0)
                           00050A  2132 	Smain$main$511 ==.
      008607 4B 80            [ 1] 2133 	push	#((___str_9+0) >> 8)
                           00050C  2134 	Smain$main$512 ==.
                                   2135 ; genIPush
      008609 96               [ 1] 2136 	ldw	x, sp
      00860A 1C 00 03         [ 2] 2137 	addw	x, #3
      00860D 89               [ 2] 2138 	pushw	x
                           000511  2139 	Smain$main$513 ==.
                                   2140 ; genCall
      00860E CD A5 A7         [ 4] 2141 	call	_sprintf
      008611 5B 04            [ 2] 2142 	addw	sp, #4
                           000516  2143 	Smain$main$514 ==.
                           000516  2144 	Smain$main$515 ==.
                                   2145 ;	./src/main.c: 224: lcd_puts(text);
                                   2146 ; skipping iCode since result will be rematerialized
                                   2147 ; skipping iCode since result will be rematerialized
                                   2148 ; genIPush
      008613 96               [ 1] 2149 	ldw	x, sp
      008614 5C               [ 1] 2150 	incw	x
      008615 89               [ 2] 2151 	pushw	x
                           000519  2152 	Smain$main$516 ==.
                                   2153 ; genCall
      008616 CD 89 73         [ 4] 2154 	call	_lcd_puts
      008619 85               [ 2] 2155 	popw	x
                           00051D  2156 	Smain$main$517 ==.
                           00051D  2157 	Smain$main$518 ==.
                                   2158 ; genLabel
      00861A                       2159 00125$:
                           00051D  2160 	Smain$main$519 ==.
                                   2161 ;	./src/main.c: 228: if (stavty == 3 ) {
                                   2162 ; genIfx
      00861A 0D 2F            [ 1] 2163 	tnz	(0x2f, sp)
      00861C 26 03            [ 1] 2164 	jrne	00287$
      00861E CC 86 9E         [ 2] 2165 	jp	00129$
      008621                       2166 00287$:
                           000524  2167 	Smain$main$520 ==.
                           000524  2168 	Smain$main$521 ==.
                                   2169 ;	./src/main.c: 229: lcd_gotoxy(14 , 2);
                                   2170 ; genIPush
      008621 4B 02            [ 1] 2171 	push	#0x02
                           000526  2172 	Smain$main$522 ==.
                                   2173 ; genIPush
      008623 4B 0E            [ 1] 2174 	push	#0x0e
                           000528  2175 	Smain$main$523 ==.
                                   2176 ; genCall
      008625 CD 8A 0B         [ 4] 2177 	call	_lcd_gotoxy
      008628 85               [ 2] 2178 	popw	x
                           00052C  2179 	Smain$main$524 ==.
                           00052C  2180 	Smain$main$525 ==.
                                   2181 ;	./src/main.c: 230: sprintf(text,"vyhra");
                                   2182 ; skipping iCode since result will be rematerialized
                                   2183 ; skipping iCode since result will be rematerialized
                                   2184 ; skipping iCode since result will be rematerialized
                                   2185 ; skipping iCode since result will be rematerialized
                                   2186 ; genIPush
      008629 4B DC            [ 1] 2187 	push	#<(___str_10+0)
                           00052E  2188 	Smain$main$526 ==.
      00862B 4B 80            [ 1] 2189 	push	#((___str_10+0) >> 8)
                           000530  2190 	Smain$main$527 ==.
                                   2191 ; genIPush
      00862D 96               [ 1] 2192 	ldw	x, sp
      00862E 1C 00 03         [ 2] 2193 	addw	x, #3
      008631 89               [ 2] 2194 	pushw	x
                           000535  2195 	Smain$main$528 ==.
                                   2196 ; genCall
      008632 CD A5 A7         [ 4] 2197 	call	_sprintf
      008635 5B 04            [ 2] 2198 	addw	sp, #4
                           00053A  2199 	Smain$main$529 ==.
                           00053A  2200 	Smain$main$530 ==.
                                   2201 ;	./src/main.c: 231: lcd_puts(text);
                                   2202 ; skipping iCode since result will be rematerialized
                                   2203 ; skipping iCode since result will be rematerialized
                                   2204 ; genIPush
      008637 96               [ 1] 2205 	ldw	x, sp
      008638 5C               [ 1] 2206 	incw	x
      008639 89               [ 2] 2207 	pushw	x
                           00053D  2208 	Smain$main$531 ==.
                                   2209 ; genCall
      00863A CD 89 73         [ 4] 2210 	call	_lcd_puts
      00863D 85               [ 2] 2211 	popw	x
                           000541  2212 	Smain$main$532 ==.
                           000541  2213 	Smain$main$533 ==.
                                   2214 ;	./src/main.c: 232: bodyty = bodyty +1;
                                   2215 ; genCast
                                   2216 ; genAssign
      00863E 1E 23            [ 2] 2217 	ldw	x, (0x23, sp)
                                   2218 ; genPlus
      008640 5C               [ 1] 2219 	incw	x
                                   2220 ; genCast
                                   2221 ; genAssign
                                   2222 ; genAssign
      008641 1F 23            [ 2] 2223 	ldw	(0x23, sp), x
                           000546  2224 	Smain$main$534 ==.
                                   2225 ;	./src/main.c: 234: lcd_gotoxy(14 , 3);
                                   2226 ; genIPush
      008643 4B 03            [ 1] 2227 	push	#0x03
                           000548  2228 	Smain$main$535 ==.
                                   2229 ; genIPush
      008645 4B 0E            [ 1] 2230 	push	#0x0e
                           00054A  2231 	Smain$main$536 ==.
                                   2232 ; genCall
      008647 CD 8A 0B         [ 4] 2233 	call	_lcd_gotoxy
      00864A 85               [ 2] 2234 	popw	x
                           00054E  2235 	Smain$main$537 ==.
                           00054E  2236 	Smain$main$538 ==.
                                   2237 ;	./src/main.c: 235: sprintf(text,"      ");
                                   2238 ; skipping iCode since result will be rematerialized
                                   2239 ; skipping iCode since result will be rematerialized
                                   2240 ; skipping iCode since result will be rematerialized
                                   2241 ; skipping iCode since result will be rematerialized
                                   2242 ; genIPush
      00864B 4B D5            [ 1] 2243 	push	#<(___str_9+0)
                           000550  2244 	Smain$main$539 ==.
      00864D 4B 80            [ 1] 2245 	push	#((___str_9+0) >> 8)
                           000552  2246 	Smain$main$540 ==.
                                   2247 ; genIPush
      00864F 96               [ 1] 2248 	ldw	x, sp
      008650 1C 00 03         [ 2] 2249 	addw	x, #3
      008653 89               [ 2] 2250 	pushw	x
                           000557  2251 	Smain$main$541 ==.
                                   2252 ; genCall
      008654 CD A5 A7         [ 4] 2253 	call	_sprintf
      008657 5B 04            [ 2] 2254 	addw	sp, #4
                           00055C  2255 	Smain$main$542 ==.
                           00055C  2256 	Smain$main$543 ==.
                                   2257 ;	./src/main.c: 236: lcd_puts(text);
                                   2258 ; skipping iCode since result will be rematerialized
                                   2259 ; skipping iCode since result will be rematerialized
                                   2260 ; genIPush
      008659 96               [ 1] 2261 	ldw	x, sp
      00865A 5C               [ 1] 2262 	incw	x
      00865B 89               [ 2] 2263 	pushw	x
                           00055F  2264 	Smain$main$544 ==.
                                   2265 ; genCall
      00865C CD 89 73         [ 4] 2266 	call	_lcd_puts
      00865F 85               [ 2] 2267 	popw	x
                           000563  2268 	Smain$main$545 ==.
                           000563  2269 	Smain$main$546 ==.
                                   2270 ;	./src/main.c: 238: lcd_gotoxy(10 , 2);
                                   2271 ; genIPush
      008660 4B 02            [ 1] 2272 	push	#0x02
                           000565  2273 	Smain$main$547 ==.
                                   2274 ; genIPush
      008662 4B 0A            [ 1] 2275 	push	#0x0a
                           000567  2276 	Smain$main$548 ==.
                                   2277 ; genCall
      008664 CD 8A 0B         [ 4] 2278 	call	_lcd_gotoxy
      008667 85               [ 2] 2279 	popw	x
                           00056B  2280 	Smain$main$549 ==.
                           00056B  2281 	Smain$main$550 ==.
                                   2282 ;	./src/main.c: 239: sprintf(text,"%1u",bodyty);
                                   2283 ; skipping iCode since result will be rematerialized
                                   2284 ; skipping iCode since result will be rematerialized
                                   2285 ; skipping iCode since result will be rematerialized
                                   2286 ; skipping iCode since result will be rematerialized
                                   2287 ; genIPush
      008668 1E 23            [ 2] 2288 	ldw	x, (0x23, sp)
      00866A 89               [ 2] 2289 	pushw	x
                           00056E  2290 	Smain$main$551 ==.
                                   2291 ; genIPush
      00866B 4B CA            [ 1] 2292 	push	#<(___str_7+0)
                           000570  2293 	Smain$main$552 ==.
      00866D 4B 80            [ 1] 2294 	push	#((___str_7+0) >> 8)
                           000572  2295 	Smain$main$553 ==.
                                   2296 ; genIPush
      00866F 96               [ 1] 2297 	ldw	x, sp
      008670 1C 00 05         [ 2] 2298 	addw	x, #5
      008673 89               [ 2] 2299 	pushw	x
                           000577  2300 	Smain$main$554 ==.
                                   2301 ; genCall
      008674 CD A5 A7         [ 4] 2302 	call	_sprintf
      008677 5B 06            [ 2] 2303 	addw	sp, #6
                           00057C  2304 	Smain$main$555 ==.
                           00057C  2305 	Smain$main$556 ==.
                                   2306 ;	./src/main.c: 240: lcd_puts(text);
                                   2307 ; skipping iCode since result will be rematerialized
                                   2308 ; skipping iCode since result will be rematerialized
                                   2309 ; genIPush
      008679 96               [ 1] 2310 	ldw	x, sp
      00867A 5C               [ 1] 2311 	incw	x
      00867B 89               [ 2] 2312 	pushw	x
                           00057F  2313 	Smain$main$557 ==.
                                   2314 ; genCall
      00867C CD 89 73         [ 4] 2315 	call	_lcd_puts
      00867F 85               [ 2] 2316 	popw	x
                           000583  2317 	Smain$main$558 ==.
                           000583  2318 	Smain$main$559 ==.
                                   2319 ;	./src/main.c: 241: G4_HIGH;
                                   2320 ; genIPush
      008680 4B 10            [ 1] 2321 	push	#0x10
                           000585  2322 	Smain$main$560 ==.
                                   2323 ; genIPush
      008682 4B 1E            [ 1] 2324 	push	#0x1e
                           000587  2325 	Smain$main$561 ==.
      008684 4B 50            [ 1] 2326 	push	#0x50
                           000589  2327 	Smain$main$562 ==.
                                   2328 ; genCall
      008686 CD 96 9C         [ 4] 2329 	call	_GPIO_WriteHigh
      008689 5B 03            [ 2] 2330 	addw	sp, #3
                           00058E  2331 	Smain$main$563 ==.
                           00058E  2332 	Smain$main$564 ==.
                                   2333 ;	./src/main.c: 242: delay_ms(50);
                                   2334 ; genIPush
      00868B 4B 32            [ 1] 2335 	push	#0x32
                           000590  2336 	Smain$main$565 ==.
      00868D 4B 00            [ 1] 2337 	push	#0x00
                           000592  2338 	Smain$main$566 ==.
                                   2339 ; genCall
      00868F CD 81 42         [ 4] 2340 	call	_delay_ms
      008692 85               [ 2] 2341 	popw	x
                           000596  2342 	Smain$main$567 ==.
                           000596  2343 	Smain$main$568 ==.
                                   2344 ;	./src/main.c: 243: G4_LOW;
                                   2345 ; genIPush
      008693 4B 10            [ 1] 2346 	push	#0x10
                           000598  2347 	Smain$main$569 ==.
                                   2348 ; genIPush
      008695 4B 1E            [ 1] 2349 	push	#0x1e
                           00059A  2350 	Smain$main$570 ==.
      008697 4B 50            [ 1] 2351 	push	#0x50
                           00059C  2352 	Smain$main$571 ==.
                                   2353 ; genCall
      008699 CD 96 A3         [ 4] 2354 	call	_GPIO_WriteLow
      00869C 5B 03            [ 2] 2355 	addw	sp, #3
                           0005A1  2356 	Smain$main$572 ==.
                           0005A1  2357 	Smain$main$573 ==.
                                   2358 ; genLabel
      00869E                       2359 00129$:
                           0005A1  2360 	Smain$main$574 ==.
                                   2361 ;	./src/main.c: 247: if (random == 2) {
                                   2362 ; genIfx
      00869E 0D 2C            [ 1] 2363 	tnz	(0x2c, sp)
      0086A0 26 03            [ 1] 2364 	jrne	00288$
      0086A2 CC 87 D0         [ 2] 2365 	jp	00137$
      0086A5                       2366 00288$:
                           0005A8  2367 	Smain$main$575 ==.
                           0005A8  2368 	Smain$main$576 ==.
                                   2369 ;	./src/main.c: 249: if (stavty == 1  ) {
                                   2370 ; genIfx
      0086A5 0D 2D            [ 1] 2371 	tnz	(0x2d, sp)
      0086A7 26 03            [ 1] 2372 	jrne	00289$
      0086A9 CC 87 29         [ 2] 2373 	jp	00131$
      0086AC                       2374 00289$:
                           0005AF  2375 	Smain$main$577 ==.
                           0005AF  2376 	Smain$main$578 ==.
                                   2377 ;	./src/main.c: 250: lcd_gotoxy(14 , 2);
                                   2378 ; genIPush
      0086AC 4B 02            [ 1] 2379 	push	#0x02
                           0005B1  2380 	Smain$main$579 ==.
                                   2381 ; genIPush
      0086AE 4B 0E            [ 1] 2382 	push	#0x0e
                           0005B3  2383 	Smain$main$580 ==.
                                   2384 ; genCall
      0086B0 CD 8A 0B         [ 4] 2385 	call	_lcd_gotoxy
      0086B3 85               [ 2] 2386 	popw	x
                           0005B7  2387 	Smain$main$581 ==.
                           0005B7  2388 	Smain$main$582 ==.
                                   2389 ;	./src/main.c: 251: sprintf(text,"vyhra");
                                   2390 ; skipping iCode since result will be rematerialized
                                   2391 ; skipping iCode since result will be rematerialized
                                   2392 ; skipping iCode since result will be rematerialized
                                   2393 ; skipping iCode since result will be rematerialized
                                   2394 ; genIPush
      0086B4 4B DC            [ 1] 2395 	push	#<(___str_10+0)
                           0005B9  2396 	Smain$main$583 ==.
      0086B6 4B 80            [ 1] 2397 	push	#((___str_10+0) >> 8)
                           0005BB  2398 	Smain$main$584 ==.
                                   2399 ; genIPush
      0086B8 96               [ 1] 2400 	ldw	x, sp
      0086B9 1C 00 03         [ 2] 2401 	addw	x, #3
      0086BC 89               [ 2] 2402 	pushw	x
                           0005C0  2403 	Smain$main$585 ==.
                                   2404 ; genCall
      0086BD CD A5 A7         [ 4] 2405 	call	_sprintf
      0086C0 5B 04            [ 2] 2406 	addw	sp, #4
                           0005C5  2407 	Smain$main$586 ==.
                           0005C5  2408 	Smain$main$587 ==.
                                   2409 ;	./src/main.c: 252: lcd_puts(text);
                                   2410 ; skipping iCode since result will be rematerialized
                                   2411 ; skipping iCode since result will be rematerialized
                                   2412 ; genIPush
      0086C2 96               [ 1] 2413 	ldw	x, sp
      0086C3 5C               [ 1] 2414 	incw	x
      0086C4 89               [ 2] 2415 	pushw	x
                           0005C8  2416 	Smain$main$588 ==.
                                   2417 ; genCall
      0086C5 CD 89 73         [ 4] 2418 	call	_lcd_puts
      0086C8 85               [ 2] 2419 	popw	x
                           0005CC  2420 	Smain$main$589 ==.
                           0005CC  2421 	Smain$main$590 ==.
                                   2422 ;	./src/main.c: 253: bodyty = bodyty +1;
                                   2423 ; genCast
                                   2424 ; genAssign
      0086C9 1E 23            [ 2] 2425 	ldw	x, (0x23, sp)
                                   2426 ; genPlus
      0086CB 5C               [ 1] 2427 	incw	x
                                   2428 ; genCast
                                   2429 ; genAssign
                                   2430 ; genAssign
      0086CC 1F 23            [ 2] 2431 	ldw	(0x23, sp), x
                           0005D1  2432 	Smain$main$591 ==.
                                   2433 ;	./src/main.c: 255: lcd_gotoxy(14 , 3);
                                   2434 ; genIPush
      0086CE 4B 03            [ 1] 2435 	push	#0x03
                           0005D3  2436 	Smain$main$592 ==.
                                   2437 ; genIPush
      0086D0 4B 0E            [ 1] 2438 	push	#0x0e
                           0005D5  2439 	Smain$main$593 ==.
                                   2440 ; genCall
      0086D2 CD 8A 0B         [ 4] 2441 	call	_lcd_gotoxy
      0086D5 85               [ 2] 2442 	popw	x
                           0005D9  2443 	Smain$main$594 ==.
                           0005D9  2444 	Smain$main$595 ==.
                                   2445 ;	./src/main.c: 256: sprintf(text,"      ");
                                   2446 ; skipping iCode since result will be rematerialized
                                   2447 ; skipping iCode since result will be rematerialized
                                   2448 ; skipping iCode since result will be rematerialized
                                   2449 ; skipping iCode since result will be rematerialized
                                   2450 ; genIPush
      0086D6 4B D5            [ 1] 2451 	push	#<(___str_9+0)
                           0005DB  2452 	Smain$main$596 ==.
      0086D8 4B 80            [ 1] 2453 	push	#((___str_9+0) >> 8)
                           0005DD  2454 	Smain$main$597 ==.
                                   2455 ; genIPush
      0086DA 96               [ 1] 2456 	ldw	x, sp
      0086DB 1C 00 03         [ 2] 2457 	addw	x, #3
      0086DE 89               [ 2] 2458 	pushw	x
                           0005E2  2459 	Smain$main$598 ==.
                                   2460 ; genCall
      0086DF CD A5 A7         [ 4] 2461 	call	_sprintf
      0086E2 5B 04            [ 2] 2462 	addw	sp, #4
                           0005E7  2463 	Smain$main$599 ==.
                           0005E7  2464 	Smain$main$600 ==.
                                   2465 ;	./src/main.c: 257: lcd_puts(text);
                                   2466 ; skipping iCode since result will be rematerialized
                                   2467 ; skipping iCode since result will be rematerialized
                                   2468 ; genIPush
      0086E4 96               [ 1] 2469 	ldw	x, sp
      0086E5 5C               [ 1] 2470 	incw	x
      0086E6 89               [ 2] 2471 	pushw	x
                           0005EA  2472 	Smain$main$601 ==.
                                   2473 ; genCall
      0086E7 CD 89 73         [ 4] 2474 	call	_lcd_puts
      0086EA 85               [ 2] 2475 	popw	x
                           0005EE  2476 	Smain$main$602 ==.
                           0005EE  2477 	Smain$main$603 ==.
                                   2478 ;	./src/main.c: 259: lcd_gotoxy(10 , 2);
                                   2479 ; genIPush
      0086EB 4B 02            [ 1] 2480 	push	#0x02
                           0005F0  2481 	Smain$main$604 ==.
                                   2482 ; genIPush
      0086ED 4B 0A            [ 1] 2483 	push	#0x0a
                           0005F2  2484 	Smain$main$605 ==.
                                   2485 ; genCall
      0086EF CD 8A 0B         [ 4] 2486 	call	_lcd_gotoxy
      0086F2 85               [ 2] 2487 	popw	x
                           0005F6  2488 	Smain$main$606 ==.
                           0005F6  2489 	Smain$main$607 ==.
                                   2490 ;	./src/main.c: 260: sprintf(text,"%1u",bodyty);
                                   2491 ; skipping iCode since result will be rematerialized
                                   2492 ; skipping iCode since result will be rematerialized
                                   2493 ; skipping iCode since result will be rematerialized
                                   2494 ; skipping iCode since result will be rematerialized
                                   2495 ; genIPush
      0086F3 1E 23            [ 2] 2496 	ldw	x, (0x23, sp)
      0086F5 89               [ 2] 2497 	pushw	x
                           0005F9  2498 	Smain$main$608 ==.
                                   2499 ; genIPush
      0086F6 4B CA            [ 1] 2500 	push	#<(___str_7+0)
                           0005FB  2501 	Smain$main$609 ==.
      0086F8 4B 80            [ 1] 2502 	push	#((___str_7+0) >> 8)
                           0005FD  2503 	Smain$main$610 ==.
                                   2504 ; genIPush
      0086FA 96               [ 1] 2505 	ldw	x, sp
      0086FB 1C 00 05         [ 2] 2506 	addw	x, #5
      0086FE 89               [ 2] 2507 	pushw	x
                           000602  2508 	Smain$main$611 ==.
                                   2509 ; genCall
      0086FF CD A5 A7         [ 4] 2510 	call	_sprintf
      008702 5B 06            [ 2] 2511 	addw	sp, #6
                           000607  2512 	Smain$main$612 ==.
                           000607  2513 	Smain$main$613 ==.
                                   2514 ;	./src/main.c: 261: lcd_puts(text);
                                   2515 ; skipping iCode since result will be rematerialized
                                   2516 ; skipping iCode since result will be rematerialized
                                   2517 ; genIPush
      008704 96               [ 1] 2518 	ldw	x, sp
      008705 5C               [ 1] 2519 	incw	x
      008706 89               [ 2] 2520 	pushw	x
                           00060A  2521 	Smain$main$614 ==.
                                   2522 ; genCall
      008707 CD 89 73         [ 4] 2523 	call	_lcd_puts
      00870A 85               [ 2] 2524 	popw	x
                           00060E  2525 	Smain$main$615 ==.
                           00060E  2526 	Smain$main$616 ==.
                                   2527 ;	./src/main.c: 262: G4_HIGH;
                                   2528 ; genIPush
      00870B 4B 10            [ 1] 2529 	push	#0x10
                           000610  2530 	Smain$main$617 ==.
                                   2531 ; genIPush
      00870D 4B 1E            [ 1] 2532 	push	#0x1e
                           000612  2533 	Smain$main$618 ==.
      00870F 4B 50            [ 1] 2534 	push	#0x50
                           000614  2535 	Smain$main$619 ==.
                                   2536 ; genCall
      008711 CD 96 9C         [ 4] 2537 	call	_GPIO_WriteHigh
      008714 5B 03            [ 2] 2538 	addw	sp, #3
                           000619  2539 	Smain$main$620 ==.
                           000619  2540 	Smain$main$621 ==.
                                   2541 ;	./src/main.c: 263: delay_ms(50);
                                   2542 ; genIPush
      008716 4B 32            [ 1] 2543 	push	#0x32
                           00061B  2544 	Smain$main$622 ==.
      008718 4B 00            [ 1] 2545 	push	#0x00
                           00061D  2546 	Smain$main$623 ==.
                                   2547 ; genCall
      00871A CD 81 42         [ 4] 2548 	call	_delay_ms
      00871D 85               [ 2] 2549 	popw	x
                           000621  2550 	Smain$main$624 ==.
                           000621  2551 	Smain$main$625 ==.
                                   2552 ;	./src/main.c: 264: G4_LOW;
                                   2553 ; genIPush
      00871E 4B 10            [ 1] 2554 	push	#0x10
                           000623  2555 	Smain$main$626 ==.
                                   2556 ; genIPush
      008720 4B 1E            [ 1] 2557 	push	#0x1e
                           000625  2558 	Smain$main$627 ==.
      008722 4B 50            [ 1] 2559 	push	#0x50
                           000627  2560 	Smain$main$628 ==.
                                   2561 ; genCall
      008724 CD 96 A3         [ 4] 2562 	call	_GPIO_WriteLow
      008727 5B 03            [ 2] 2563 	addw	sp, #3
                           00062C  2564 	Smain$main$629 ==.
                           00062C  2565 	Smain$main$630 ==.
                                   2566 ; genLabel
      008729                       2567 00131$:
                           00062C  2568 	Smain$main$631 ==.
                                   2569 ;	./src/main.c: 266: if (stavty == 2 ) {
                                   2570 ; genIfx
      008729 0D 2E            [ 1] 2571 	tnz	(0x2e, sp)
      00872B 26 03            [ 1] 2572 	jrne	00290$
      00872D CC 87 8F         [ 2] 2573 	jp	00133$
      008730                       2574 00290$:
                           000633  2575 	Smain$main$632 ==.
                           000633  2576 	Smain$main$633 ==.
                                   2577 ;	./src/main.c: 267: lcd_gotoxy(14 , 3);
                                   2578 ; genIPush
      008730 4B 03            [ 1] 2579 	push	#0x03
                           000635  2580 	Smain$main$634 ==.
                                   2581 ; genIPush
      008732 4B 0E            [ 1] 2582 	push	#0x0e
                           000637  2583 	Smain$main$635 ==.
                                   2584 ; genCall
      008734 CD 8A 0B         [ 4] 2585 	call	_lcd_gotoxy
      008737 85               [ 2] 2586 	popw	x
                           00063B  2587 	Smain$main$636 ==.
                           00063B  2588 	Smain$main$637 ==.
                                   2589 ;	./src/main.c: 268: sprintf(text,"vyhra");
                                   2590 ; skipping iCode since result will be rematerialized
                                   2591 ; skipping iCode since result will be rematerialized
                                   2592 ; skipping iCode since result will be rematerialized
                                   2593 ; skipping iCode since result will be rematerialized
                                   2594 ; genIPush
      008738 4B DC            [ 1] 2595 	push	#<(___str_10+0)
                           00063D  2596 	Smain$main$638 ==.
      00873A 4B 80            [ 1] 2597 	push	#((___str_10+0) >> 8)
                           00063F  2598 	Smain$main$639 ==.
                                   2599 ; genIPush
      00873C 96               [ 1] 2600 	ldw	x, sp
      00873D 1C 00 03         [ 2] 2601 	addw	x, #3
      008740 89               [ 2] 2602 	pushw	x
                           000644  2603 	Smain$main$640 ==.
                                   2604 ; genCall
      008741 CD A5 A7         [ 4] 2605 	call	_sprintf
      008744 5B 04            [ 2] 2606 	addw	sp, #4
                           000649  2607 	Smain$main$641 ==.
                           000649  2608 	Smain$main$642 ==.
                                   2609 ;	./src/main.c: 269: lcd_puts(text);
                                   2610 ; skipping iCode since result will be rematerialized
                                   2611 ; skipping iCode since result will be rematerialized
                                   2612 ; genIPush
      008746 96               [ 1] 2613 	ldw	x, sp
      008747 5C               [ 1] 2614 	incw	x
      008748 89               [ 2] 2615 	pushw	x
                           00064C  2616 	Smain$main$643 ==.
                                   2617 ; genCall
      008749 CD 89 73         [ 4] 2618 	call	_lcd_puts
      00874C 85               [ 2] 2619 	popw	x
                           000650  2620 	Smain$main$644 ==.
                           000650  2621 	Smain$main$645 ==.
                                   2622 ;	./src/main.c: 270: bodystm = bodystm +1;
                                   2623 ; genCast
                                   2624 ; genAssign
      00874D 1E 21            [ 2] 2625 	ldw	x, (0x21, sp)
                                   2626 ; genPlus
      00874F 5C               [ 1] 2627 	incw	x
                                   2628 ; genCast
                                   2629 ; genAssign
                                   2630 ; genAssign
      008750 1F 21            [ 2] 2631 	ldw	(0x21, sp), x
                           000655  2632 	Smain$main$646 ==.
                                   2633 ;	./src/main.c: 272: lcd_gotoxy(14 , 2);
                                   2634 ; genIPush
      008752 4B 02            [ 1] 2635 	push	#0x02
                           000657  2636 	Smain$main$647 ==.
                                   2637 ; genIPush
      008754 4B 0E            [ 1] 2638 	push	#0x0e
                           000659  2639 	Smain$main$648 ==.
                                   2640 ; genCall
      008756 CD 8A 0B         [ 4] 2641 	call	_lcd_gotoxy
      008759 85               [ 2] 2642 	popw	x
                           00065D  2643 	Smain$main$649 ==.
                           00065D  2644 	Smain$main$650 ==.
                                   2645 ;	./src/main.c: 273: sprintf(text,"      ");
                                   2646 ; skipping iCode since result will be rematerialized
                                   2647 ; skipping iCode since result will be rematerialized
                                   2648 ; skipping iCode since result will be rematerialized
                                   2649 ; skipping iCode since result will be rematerialized
                                   2650 ; genIPush
      00875A 4B D5            [ 1] 2651 	push	#<(___str_9+0)
                           00065F  2652 	Smain$main$651 ==.
      00875C 4B 80            [ 1] 2653 	push	#((___str_9+0) >> 8)
                           000661  2654 	Smain$main$652 ==.
                                   2655 ; genIPush
      00875E 96               [ 1] 2656 	ldw	x, sp
      00875F 1C 00 03         [ 2] 2657 	addw	x, #3
      008762 89               [ 2] 2658 	pushw	x
                           000666  2659 	Smain$main$653 ==.
                                   2660 ; genCall
      008763 CD A5 A7         [ 4] 2661 	call	_sprintf
      008766 5B 04            [ 2] 2662 	addw	sp, #4
                           00066B  2663 	Smain$main$654 ==.
                           00066B  2664 	Smain$main$655 ==.
                                   2665 ;	./src/main.c: 274: lcd_puts(text);
                                   2666 ; skipping iCode since result will be rematerialized
                                   2667 ; skipping iCode since result will be rematerialized
                                   2668 ; genIPush
      008768 96               [ 1] 2669 	ldw	x, sp
      008769 5C               [ 1] 2670 	incw	x
      00876A 89               [ 2] 2671 	pushw	x
                           00066E  2672 	Smain$main$656 ==.
                                   2673 ; genCall
      00876B CD 89 73         [ 4] 2674 	call	_lcd_puts
      00876E 85               [ 2] 2675 	popw	x
                           000672  2676 	Smain$main$657 ==.
                           000672  2677 	Smain$main$658 ==.
                                   2678 ;	./src/main.c: 276: lcd_gotoxy(10 , 3);
                                   2679 ; genIPush
      00876F 4B 03            [ 1] 2680 	push	#0x03
                           000674  2681 	Smain$main$659 ==.
                                   2682 ; genIPush
      008771 4B 0A            [ 1] 2683 	push	#0x0a
                           000676  2684 	Smain$main$660 ==.
                                   2685 ; genCall
      008773 CD 8A 0B         [ 4] 2686 	call	_lcd_gotoxy
      008776 85               [ 2] 2687 	popw	x
                           00067A  2688 	Smain$main$661 ==.
                           00067A  2689 	Smain$main$662 ==.
                                   2690 ;	./src/main.c: 277: sprintf(text,"%1u",bodystm);
                                   2691 ; skipping iCode since result will be rematerialized
                                   2692 ; skipping iCode since result will be rematerialized
                                   2693 ; skipping iCode since result will be rematerialized
                                   2694 ; skipping iCode since result will be rematerialized
                                   2695 ; genIPush
      008777 1E 21            [ 2] 2696 	ldw	x, (0x21, sp)
      008779 89               [ 2] 2697 	pushw	x
                           00067D  2698 	Smain$main$663 ==.
                                   2699 ; genIPush
      00877A 4B CA            [ 1] 2700 	push	#<(___str_7+0)
                           00067F  2701 	Smain$main$664 ==.
      00877C 4B 80            [ 1] 2702 	push	#((___str_7+0) >> 8)
                           000681  2703 	Smain$main$665 ==.
                                   2704 ; genIPush
      00877E 96               [ 1] 2705 	ldw	x, sp
      00877F 1C 00 05         [ 2] 2706 	addw	x, #5
      008782 89               [ 2] 2707 	pushw	x
                           000686  2708 	Smain$main$666 ==.
                                   2709 ; genCall
      008783 CD A5 A7         [ 4] 2710 	call	_sprintf
      008786 5B 06            [ 2] 2711 	addw	sp, #6
                           00068B  2712 	Smain$main$667 ==.
                           00068B  2713 	Smain$main$668 ==.
                                   2714 ;	./src/main.c: 278: lcd_puts(text);
                                   2715 ; skipping iCode since result will be rematerialized
                                   2716 ; skipping iCode since result will be rematerialized
                                   2717 ; genIPush
      008788 96               [ 1] 2718 	ldw	x, sp
      008789 5C               [ 1] 2719 	incw	x
      00878A 89               [ 2] 2720 	pushw	x
                           00068E  2721 	Smain$main$669 ==.
                                   2722 ; genCall
      00878B CD 89 73         [ 4] 2723 	call	_lcd_puts
      00878E 85               [ 2] 2724 	popw	x
                           000692  2725 	Smain$main$670 ==.
                           000692  2726 	Smain$main$671 ==.
                                   2727 ; genLabel
      00878F                       2728 00133$:
                           000692  2729 	Smain$main$672 ==.
                                   2730 ;	./src/main.c: 280: if (stavty == 3 ) {
                                   2731 ; genIfx
      00878F 0D 2F            [ 1] 2732 	tnz	(0x2f, sp)
      008791 26 03            [ 1] 2733 	jrne	00291$
      008793 CC 87 D0         [ 2] 2734 	jp	00137$
      008796                       2735 00291$:
                           000699  2736 	Smain$main$673 ==.
                           000699  2737 	Smain$main$674 ==.
                                   2738 ;	./src/main.c: 281: lcd_gotoxy(14 , 3);
                                   2739 ; genIPush
      008796 4B 03            [ 1] 2740 	push	#0x03
                           00069B  2741 	Smain$main$675 ==.
                                   2742 ; genIPush
      008798 4B 0E            [ 1] 2743 	push	#0x0e
                           00069D  2744 	Smain$main$676 ==.
                                   2745 ; genCall
      00879A CD 8A 0B         [ 4] 2746 	call	_lcd_gotoxy
      00879D 85               [ 2] 2747 	popw	x
                           0006A1  2748 	Smain$main$677 ==.
                           0006A1  2749 	Smain$main$678 ==.
                                   2750 ;	./src/main.c: 282: sprintf(text,"remiza");
                                   2751 ; skipping iCode since result will be rematerialized
                                   2752 ; skipping iCode since result will be rematerialized
                                   2753 ; skipping iCode since result will be rematerialized
                                   2754 ; skipping iCode since result will be rematerialized
                                   2755 ; genIPush
      00879E 4B CE            [ 1] 2756 	push	#<(___str_8+0)
                           0006A3  2757 	Smain$main$679 ==.
      0087A0 4B 80            [ 1] 2758 	push	#((___str_8+0) >> 8)
                           0006A5  2759 	Smain$main$680 ==.
                                   2760 ; genIPush
      0087A2 96               [ 1] 2761 	ldw	x, sp
      0087A3 1C 00 03         [ 2] 2762 	addw	x, #3
      0087A6 89               [ 2] 2763 	pushw	x
                           0006AA  2764 	Smain$main$681 ==.
                                   2765 ; genCall
      0087A7 CD A5 A7         [ 4] 2766 	call	_sprintf
      0087AA 5B 04            [ 2] 2767 	addw	sp, #4
                           0006AF  2768 	Smain$main$682 ==.
                           0006AF  2769 	Smain$main$683 ==.
                                   2770 ;	./src/main.c: 283: lcd_puts(text);
                                   2771 ; skipping iCode since result will be rematerialized
                                   2772 ; skipping iCode since result will be rematerialized
                                   2773 ; genIPush
      0087AC 96               [ 1] 2774 	ldw	x, sp
      0087AD 5C               [ 1] 2775 	incw	x
      0087AE 89               [ 2] 2776 	pushw	x
                           0006B2  2777 	Smain$main$684 ==.
                                   2778 ; genCall
      0087AF CD 89 73         [ 4] 2779 	call	_lcd_puts
      0087B2 85               [ 2] 2780 	popw	x
                           0006B6  2781 	Smain$main$685 ==.
                           0006B6  2782 	Smain$main$686 ==.
                                   2783 ;	./src/main.c: 285: lcd_gotoxy(14 , 2);
                                   2784 ; genIPush
      0087B3 4B 02            [ 1] 2785 	push	#0x02
                           0006B8  2786 	Smain$main$687 ==.
                                   2787 ; genIPush
      0087B5 4B 0E            [ 1] 2788 	push	#0x0e
                           0006BA  2789 	Smain$main$688 ==.
                                   2790 ; genCall
      0087B7 CD 8A 0B         [ 4] 2791 	call	_lcd_gotoxy
      0087BA 85               [ 2] 2792 	popw	x
                           0006BE  2793 	Smain$main$689 ==.
                           0006BE  2794 	Smain$main$690 ==.
                                   2795 ;	./src/main.c: 286: sprintf(text,"      ");
                                   2796 ; skipping iCode since result will be rematerialized
                                   2797 ; skipping iCode since result will be rematerialized
                                   2798 ; skipping iCode since result will be rematerialized
                                   2799 ; skipping iCode since result will be rematerialized
                                   2800 ; genIPush
      0087BB 4B D5            [ 1] 2801 	push	#<(___str_9+0)
                           0006C0  2802 	Smain$main$691 ==.
      0087BD 4B 80            [ 1] 2803 	push	#((___str_9+0) >> 8)
                           0006C2  2804 	Smain$main$692 ==.
                                   2805 ; genIPush
      0087BF 96               [ 1] 2806 	ldw	x, sp
      0087C0 1C 00 03         [ 2] 2807 	addw	x, #3
      0087C3 89               [ 2] 2808 	pushw	x
                           0006C7  2809 	Smain$main$693 ==.
                                   2810 ; genCall
      0087C4 CD A5 A7         [ 4] 2811 	call	_sprintf
      0087C7 5B 04            [ 2] 2812 	addw	sp, #4
                           0006CC  2813 	Smain$main$694 ==.
                           0006CC  2814 	Smain$main$695 ==.
                                   2815 ;	./src/main.c: 287: lcd_puts(text);
                                   2816 ; skipping iCode since result will be rematerialized
                                   2817 ; skipping iCode since result will be rematerialized
                                   2818 ; genIPush
      0087C9 96               [ 1] 2819 	ldw	x, sp
      0087CA 5C               [ 1] 2820 	incw	x
      0087CB 89               [ 2] 2821 	pushw	x
                           0006CF  2822 	Smain$main$696 ==.
                                   2823 ; genCall
      0087CC CD 89 73         [ 4] 2824 	call	_lcd_puts
      0087CF 85               [ 2] 2825 	popw	x
                           0006D3  2826 	Smain$main$697 ==.
                           0006D3  2827 	Smain$main$698 ==.
                           0006D3  2828 	Smain$main$699 ==.
                                   2829 ;	./src/main.c: 289: x = 1;
                                   2830 ; genLabel
      0087D0                       2831 00137$:
                           0006D3  2832 	Smain$main$700 ==.
                                   2833 ;	./src/main.c: 291: x = 0;
                                   2834 ; genAssign
      0087D0 5F               [ 1] 2835 	clrw	x
      0087D1 1F 2C            [ 2] 2836 	ldw	(0x2c, sp), x
                           0006D6  2837 	Smain$main$701 ==.
                                   2838 ;	./src/main.c: 292: delay_ms(500);
                                   2839 ; genIPush
      0087D3 4B F4            [ 1] 2840 	push	#0xf4
                           0006D8  2841 	Smain$main$702 ==.
      0087D5 4B 01            [ 1] 2842 	push	#0x01
                           0006DA  2843 	Smain$main$703 ==.
                                   2844 ; genCall
      0087D7 CD 81 42         [ 4] 2845 	call	_delay_ms
      0087DA 85               [ 2] 2846 	popw	x
                           0006DE  2847 	Smain$main$704 ==.
                           0006DE  2848 	Smain$main$705 ==.
                                   2849 ;	./src/main.c: 293: delay_ms(500);
                                   2850 ; genIPush
      0087DB 4B F4            [ 1] 2851 	push	#0xf4
                           0006E0  2852 	Smain$main$706 ==.
      0087DD 4B 01            [ 1] 2853 	push	#0x01
                           0006E2  2854 	Smain$main$707 ==.
                                   2855 ; genCall
      0087DF CD 81 42         [ 4] 2856 	call	_delay_ms
      0087E2 85               [ 2] 2857 	popw	x
                           0006E6  2858 	Smain$main$708 ==.
                           0006E6  2859 	Smain$main$709 ==.
                                   2860 ;	./src/main.c: 294: delay_ms(500);
                                   2861 ; genIPush
      0087E3 4B F4            [ 1] 2862 	push	#0xf4
                           0006E8  2863 	Smain$main$710 ==.
      0087E5 4B 01            [ 1] 2864 	push	#0x01
                           0006EA  2865 	Smain$main$711 ==.
                                   2866 ; genCall
      0087E7 CD 81 42         [ 4] 2867 	call	_delay_ms
      0087EA 85               [ 2] 2868 	popw	x
                           0006EE  2869 	Smain$main$712 ==.
                           0006EE  2870 	Smain$main$713 ==.
                                   2871 ; genGoto
      0087EB CC 81 F2         [ 2] 2872 	jp	00142$
                                   2873 ; genLabel
      0087EE                       2874 00144$:
                           0006F1  2875 	Smain$main$714 ==.
                                   2876 ;	./src/main.c: 310: }
                                   2877 ; genEndFunction
      0087EE 5B 2F            [ 2] 2878 	addw	sp, #47
                           0006F3  2879 	Smain$main$715 ==.
                           0006F3  2880 	Smain$main$716 ==.
                           0006F3  2881 	XG$main$0$0 ==.
      0087F0 81               [ 4] 2882 	ret
                           0006F4  2883 	Smain$main$717 ==.
                                   2884 	.area CODE
                                   2885 	.area CONST
                           000000  2886 Fmain$__str_0$0_0$0 == .
                                   2887 	.area CONST
      00808C                       2888 ___str_0:
      00808C 74 76 75 6A 20 76 79  2889 	.ascii "tvuj vyber:"
             62 65 72 3A
      008097 00                    2890 	.db 0x00
                                   2891 	.area CODE
                           0006F4  2892 Fmain$__str_1$0_0$0 == .
                                   2893 	.area CONST
      008098                       2894 ___str_1:
      008098 73 74 6D 38 20 76 79  2895 	.ascii "stm8 vyber:"
             62 65 72 3A
      0080A3 00                    2896 	.db 0x00
                                   2897 	.area CODE
                           0006F4  2898 Fmain$__str_2$0_0$0 == .
                                   2899 	.area CONST
      0080A4                       2900 ___str_2:
      0080A4 62 6F 64 79 20 74 79  2901 	.ascii "body ty:"
             3A
      0080AC 00                    2902 	.db 0x00
                                   2903 	.area CODE
                           0006F4  2904 Fmain$__str_3$0_0$0 == .
                                   2905 	.area CONST
      0080AD                       2906 ___str_3:
      0080AD 62 6F 74 79 20 73 74  2907 	.ascii "boty stm8:"
             6D 38 3A
      0080B7 00                    2908 	.db 0x00
                                   2909 	.area CODE
                           0006F4  2910 Fmain$__str_4$0_0$0 == .
                                   2911 	.area CONST
      0080B8                       2912 ___str_4:
      0080B8 70 61 70 69 72        2913 	.ascii "papir"
      0080BD 00                    2914 	.db 0x00
                                   2915 	.area CODE
                           0006F4  2916 Fmain$__str_5$0_0$0 == .
                                   2917 	.area CONST
      0080BE                       2918 ___str_5:
      0080BE 6E 75 7A 6B 79        2919 	.ascii "nuzky"
      0080C3 00                    2920 	.db 0x00
                                   2921 	.area CODE
                           0006F4  2922 Fmain$__str_6$0_0$0 == .
                                   2923 	.area CONST
      0080C4                       2924 ___str_6:
      0080C4 6B 61 6D 65 6E        2925 	.ascii "kamen"
      0080C9 00                    2926 	.db 0x00
                                   2927 	.area CODE
                           0006F4  2928 Fmain$__str_7$0_0$0 == .
                                   2929 	.area CONST
      0080CA                       2930 ___str_7:
      0080CA 25 31 75              2931 	.ascii "%1u"
      0080CD 00                    2932 	.db 0x00
                                   2933 	.area CODE
                           0006F4  2934 Fmain$__str_8$0_0$0 == .
                                   2935 	.area CONST
      0080CE                       2936 ___str_8:
      0080CE 72 65 6D 69 7A 61     2937 	.ascii "remiza"
      0080D4 00                    2938 	.db 0x00
                                   2939 	.area CODE
                           0006F4  2940 Fmain$__str_9$0_0$0 == .
                                   2941 	.area CONST
      0080D5                       2942 ___str_9:
      0080D5 20 20 20 20 20 20     2943 	.ascii "      "
      0080DB 00                    2944 	.db 0x00
                                   2945 	.area CODE
                           0006F4  2946 Fmain$__str_10$0_0$0 == .
                                   2947 	.area CONST
      0080DC                       2948 ___str_10:
      0080DC 76 79 68 72 61        2949 	.ascii "vyhra"
      0080E1 00                    2950 	.db 0x00
                                   2951 	.area CODE
                                   2952 	.area INITIALIZER
                                   2953 	.area CABS (ABS)
                                   2954 
                                   2955 	.area .debug_line (NOLOAD)
      000000 00 00 05 44           2956 	.dw	0,Ldebug_line_end-Ldebug_line_start
      000004                       2957 Ldebug_line_start:
      000004 00 02                 2958 	.dw	2
      000006 00 00 00 7C           2959 	.dw	0,Ldebug_line_stmt-6-Ldebug_line_start
      00000A 01                    2960 	.db	1
      00000B 01                    2961 	.db	1
      00000C FB                    2962 	.db	-5
      00000D 0F                    2963 	.db	15
      00000E 0A                    2964 	.db	10
      00000F 00                    2965 	.db	0
      000010 01                    2966 	.db	1
      000011 01                    2967 	.db	1
      000012 01                    2968 	.db	1
      000013 01                    2969 	.db	1
      000014 00                    2970 	.db	0
      000015 00                    2971 	.db	0
      000016 00                    2972 	.db	0
      000017 01                    2973 	.db	1
      000018 43 3A 5C 50 72 6F 67  2974 	.ascii "C:\Program Files\SDCC\bin\..\include\stm8"
             72 61 6D 20 46 69 6C
             65 73 5C 53 44 43 43
             08 69 6E 5C 2E 2E 5C
             69 6E 63 6C 75 64 65
             5C 73 74 6D 38
      000040 00                    2975 	.db	0
      000041 43 3A 5C 50 72 6F 67  2976 	.ascii "C:\Program Files\SDCC\bin\..\include"
             72 61 6D 20 46 69 6C
             65 73 5C 53 44 43 43
             08 69 6E 5C 2E 2E 5C
             69 6E 63 6C 75 64 65
      000064 00                    2977 	.db	0
      000065 00                    2978 	.db	0
      000066 69 6E 63 2F 64 65 6C  2979 	.ascii "inc/delay.h"
             61 79 2E 68
      000071 00                    2980 	.db	0
      000072 00                    2981 	.uleb128	0
      000073 00                    2982 	.uleb128	0
      000074 00                    2983 	.uleb128	0
      000075 2E 2F 73 72 63 2F 6D  2984 	.ascii "./src/main.c"
             61 69 6E 2E 63
      000081 00                    2985 	.db	0
      000082 00                    2986 	.uleb128	0
      000083 00                    2987 	.uleb128	0
      000084 00                    2988 	.uleb128	0
      000085 00                    2989 	.db	0
      000086                       2990 Ldebug_line_stmt:
      000086 00                    2991 	.db	0
      000087 05                    2992 	.uleb128	5
      000088 02                    2993 	.db	2
      000089 00 00 80 FD           2994 	.dw	0,(Smain$_delay_cycl$0)
      00008D 03                    2995 	.db	3
      00008E 0D                    2996 	.sleb128	13
      00008F 01                    2997 	.db	1
      000090 09                    2998 	.db	9
      000091 00 00                 2999 	.dw	Smain$_delay_cycl$2-Smain$_delay_cycl$0
      000093 03                    3000 	.db	3
      000094 0B                    3001 	.sleb128	11
      000095 01                    3002 	.db	1
      000096 09                    3003 	.db	9
      000097 00 02                 3004 	.dw	Smain$_delay_cycl$3-Smain$_delay_cycl$2
      000099 03                    3005 	.db	3
      00009A 01                    3006 	.sleb128	1
      00009B 01                    3007 	.db	1
      00009C 09                    3008 	.db	9
      00009D 00 02                 3009 	.dw	Smain$_delay_cycl$5-Smain$_delay_cycl$3
      00009F 03                    3010 	.db	3
      0000A0 01                    3011 	.sleb128	1
      0000A1 01                    3012 	.db	1
      0000A2 09                    3013 	.db	9
      0000A3 00 01                 3014 	.dw	Smain$_delay_cycl$7-Smain$_delay_cycl$5
      0000A5 03                    3015 	.db	3
      0000A6 01                    3016 	.sleb128	1
      0000A7 01                    3017 	.db	1
      0000A8 09                    3018 	.db	9
      0000A9 00 06                 3019 	.dw	Smain$_delay_cycl$8-Smain$_delay_cycl$7
      0000AB 03                    3020 	.db	3
      0000AC 01                    3021 	.sleb128	1
      0000AD 01                    3022 	.db	1
      0000AE 09                    3023 	.db	9
      0000AF 00 01                 3024 	.dw	Smain$_delay_cycl$9-Smain$_delay_cycl$8
      0000B1 03                    3025 	.db	3
      0000B2 0A                    3026 	.sleb128	10
      0000B3 01                    3027 	.db	1
      0000B4 09                    3028 	.db	9
      0000B5 00 01                 3029 	.dw	1+Smain$_delay_cycl$10-Smain$_delay_cycl$9
      0000B7 00                    3030 	.db	0
      0000B8 01                    3031 	.uleb128	1
      0000B9 01                    3032 	.db	1
      0000BA 00                    3033 	.db	0
      0000BB 05                    3034 	.uleb128	5
      0000BC 02                    3035 	.db	2
      0000BD 00 00 81 0A           3036 	.dw	0,(Smain$_delay_us$12)
      0000C1 03                    3037 	.db	3
      0000C2 28                    3038 	.sleb128	40
      0000C3 01                    3039 	.db	1
      0000C4 09                    3040 	.db	9
      0000C5 00 2F                 3041 	.dw	Smain$_delay_us$35-Smain$_delay_us$12
      0000C7 03                    3042 	.db	3
      0000C8 71                    3043 	.sleb128	-15
      0000C9 01                    3044 	.db	1
      0000CA 09                    3045 	.db	9
      0000CB 00 08                 3046 	.dw	Smain$_delay_us$39-Smain$_delay_us$35
      0000CD 03                    3047 	.db	3
      0000CE 10                    3048 	.sleb128	16
      0000CF 01                    3049 	.db	1
      0000D0 09                    3050 	.db	9
      0000D1 00 00                 3051 	.dw	Smain$_delay_us$40-Smain$_delay_us$39
      0000D3 03                    3052 	.db	3
      0000D4 01                    3053 	.sleb128	1
      0000D5 01                    3054 	.db	1
      0000D6 09                    3055 	.db	9
      0000D7 00 01                 3056 	.dw	1+Smain$_delay_us$41-Smain$_delay_us$40
      0000D9 00                    3057 	.db	0
      0000DA 01                    3058 	.uleb128	1
      0000DB 01                    3059 	.db	1
      0000DC 04                    3060 	.db	4
      0000DD 02                    3061 	.uleb128	2
      0000DE 00                    3062 	.db	0
      0000DF 05                    3063 	.uleb128	5
      0000E0 02                    3064 	.db	2
      0000E1 00 00 81 42           3065 	.dw	0,(Smain$delay_ms$43)
      0000E5 03                    3066 	.db	3
      0000E6 18                    3067 	.sleb128	24
      0000E7 01                    3068 	.db	1
      0000E8 09                    3069 	.db	9
      0000E9 00 01                 3070 	.dw	Smain$delay_ms$46-Smain$delay_ms$43
      0000EB 03                    3071 	.db	3
      0000EC 02                    3072 	.sleb128	2
      0000ED 01                    3073 	.db	1
      0000EE 04                    3074 	.db	4
      0000EF 01                    3075 	.uleb128	1
      0000F0 09                    3076 	.db	9
      0000F1 00 11                 3077 	.dw	Smain$delay_ms$50-Smain$delay_ms$46
      0000F3 03                    3078 	.db	3
      0000F4 7F                    3079 	.sleb128	-1
      0000F5 01                    3080 	.db	1
      0000F6 09                    3081 	.db	9
      0000F7 00 0D                 3082 	.dw	Smain$delay_ms$56-Smain$delay_ms$50
      0000F9 03                    3083 	.db	3
      0000FA 00                    3084 	.sleb128	0
      0000FB 01                    3085 	.db	1
      0000FC 09                    3086 	.db	9
      0000FD 00 0D                 3087 	.dw	Smain$delay_ms$62-Smain$delay_ms$56
      0000FF 03                    3088 	.db	3
      000100 00                    3089 	.sleb128	0
      000101 01                    3090 	.db	1
      000102 09                    3091 	.db	9
      000103 00 0D                 3092 	.dw	Smain$delay_ms$68-Smain$delay_ms$62
      000105 03                    3093 	.db	3
      000106 00                    3094 	.sleb128	0
      000107 01                    3095 	.db	1
      000108 04                    3096 	.db	4
      000109 02                    3097 	.uleb128	2
      00010A 09                    3098 	.db	9
      00010B 00 08                 3099 	.dw	Smain$delay_ms$72-Smain$delay_ms$68
      00010D 03                    3100 	.db	3
      00010E 01                    3101 	.sleb128	1
      00010F 01                    3102 	.db	1
      000110 09                    3103 	.db	9
      000111 00 08                 3104 	.dw	Smain$delay_ms$73-Smain$delay_ms$72
      000113 03                    3105 	.db	3
      000114 06                    3106 	.sleb128	6
      000115 01                    3107 	.db	1
      000116 09                    3108 	.db	9
      000117 00 02                 3109 	.dw	1+Smain$delay_ms$75-Smain$delay_ms$73
      000119 00                    3110 	.db	0
      00011A 01                    3111 	.uleb128	1
      00011B 01                    3112 	.db	1
      00011C 04                    3113 	.db	4
      00011D 02                    3114 	.uleb128	2
      00011E 00                    3115 	.db	0
      00011F 05                    3116 	.uleb128	5
      000120 02                    3117 	.db	2
      000121 00 00 81 8D           3118 	.dw	0,(Smain$setup$77)
      000125 03                    3119 	.db	3
      000126 22                    3120 	.sleb128	34
      000127 01                    3121 	.db	1
      000128 09                    3122 	.db	9
      000129 00 00                 3123 	.dw	Smain$setup$79-Smain$setup$77
      00012B 03                    3124 	.db	3
      00012C 02                    3125 	.sleb128	2
      00012D 01                    3126 	.db	1
      00012E 09                    3127 	.db	9
      00012F 00 06                 3128 	.dw	Smain$setup$82-Smain$setup$79
      000131 03                    3129 	.db	3
      000132 01                    3130 	.sleb128	1
      000133 01                    3131 	.db	1
      000134 09                    3132 	.db	9
      000135 00 0D                 3133 	.dw	Smain$setup$88-Smain$setup$82
      000137 03                    3134 	.db	3
      000138 01                    3135 	.sleb128	1
      000139 01                    3136 	.db	1
      00013A 09                    3137 	.db	9
      00013B 00 0D                 3138 	.dw	Smain$setup$94-Smain$setup$88
      00013D 03                    3139 	.db	3
      00013E 02                    3140 	.sleb128	2
      00013F 01                    3141 	.db	1
      000140 09                    3142 	.db	9
      000141 00 03                 3143 	.dw	Smain$setup$95-Smain$setup$94
      000143 03                    3144 	.db	3
      000144 01                    3145 	.sleb128	1
      000145 01                    3146 	.db	1
      000146 09                    3147 	.db	9
      000147 00 03                 3148 	.dw	Smain$setup$96-Smain$setup$95
      000149 03                    3149 	.db	3
      00014A 03                    3150 	.sleb128	3
      00014B 01                    3151 	.db	1
      00014C 09                    3152 	.db	9
      00014D 00 08                 3153 	.dw	Smain$setup$100-Smain$setup$96
      00014F 03                    3154 	.db	3
      000150 01                    3155 	.sleb128	1
      000151 01                    3156 	.db	1
      000152 09                    3157 	.db	9
      000153 00 08                 3158 	.dw	Smain$setup$104-Smain$setup$100
      000155 03                    3159 	.db	3
      000156 04                    3160 	.sleb128	4
      000157 01                    3161 	.db	1
      000158 09                    3162 	.db	9
      000159 00 06                 3163 	.dw	Smain$setup$107-Smain$setup$104
      00015B 03                    3164 	.db	3
      00015C 02                    3165 	.sleb128	2
      00015D 01                    3166 	.db	1
      00015E 09                    3167 	.db	9
      00015F 00 06                 3168 	.dw	Smain$setup$110-Smain$setup$107
      000161 03                    3169 	.db	3
      000162 02                    3170 	.sleb128	2
      000163 01                    3171 	.db	1
      000164 09                    3172 	.db	9
      000165 00 06                 3173 	.dw	Smain$setup$113-Smain$setup$110
      000167 03                    3174 	.db	3
      000168 02                    3175 	.sleb128	2
      000169 01                    3176 	.db	1
      00016A 09                    3177 	.db	9
      00016B 00 06                 3178 	.dw	Smain$setup$116-Smain$setup$113
      00016D 03                    3179 	.db	3
      00016E 02                    3180 	.sleb128	2
      00016F 01                    3181 	.db	1
      000170 09                    3182 	.db	9
      000171 00 03                 3183 	.dw	Smain$setup$117-Smain$setup$116
      000173 03                    3184 	.db	3
      000174 01                    3185 	.sleb128	1
      000175 01                    3186 	.db	1
      000176 09                    3187 	.db	9
      000177 00 01                 3188 	.dw	1+Smain$setup$118-Smain$setup$117
      000179 00                    3189 	.db	0
      00017A 01                    3190 	.uleb128	1
      00017B 01                    3191 	.db	1
      00017C 04                    3192 	.db	4
      00017D 02                    3193 	.uleb128	2
      00017E 00                    3194 	.db	0
      00017F 05                    3195 	.uleb128	5
      000180 02                    3196 	.db	2
      000181 00 00 81 DF           3197 	.dw	0,(Smain$main$120)
      000185 03                    3198 	.db	3
      000186 3D                    3199 	.sleb128	61
      000187 01                    3200 	.db	1
      000188 09                    3201 	.db	9
      000189 00 02                 3202 	.dw	Smain$main$123-Smain$main$120
      00018B 03                    3203 	.db	3
      00018C 05                    3204 	.sleb128	5
      00018D 01                    3205 	.db	1
      00018E 09                    3206 	.db	9
      00018F 00 03                 3207 	.dw	Smain$main$124-Smain$main$123
      000191 03                    3208 	.db	3
      000192 05                    3209 	.sleb128	5
      000193 01                    3210 	.db	1
      000194 09                    3211 	.db	9
      000195 00 03                 3212 	.dw	Smain$main$125-Smain$main$124
      000197 03                    3213 	.db	3
      000198 02                    3214 	.sleb128	2
      000199 01                    3215 	.db	1
      00019A 09                    3216 	.db	9
      00019B 00 0B                 3217 	.dw	Smain$main$127-Smain$main$125
      00019D 03                    3218 	.db	3
      00019E 02                    3219 	.sleb128	2
      00019F 01                    3220 	.db	1
      0001A0 09                    3221 	.db	9
      0001A1 00 08                 3222 	.dw	Smain$main$131-Smain$main$127
      0001A3 03                    3223 	.db	3
      0001A4 01                    3224 	.sleb128	1
      0001A5 01                    3225 	.db	1
      0001A6 09                    3226 	.db	9
      0001A7 00 0E                 3227 	.dw	Smain$main$136-Smain$main$131
      0001A9 03                    3228 	.db	3
      0001AA 01                    3229 	.sleb128	1
      0001AB 01                    3230 	.db	1
      0001AC 09                    3231 	.db	9
      0001AD 00 07                 3232 	.dw	Smain$main$139-Smain$main$136
      0001AF 03                    3233 	.db	3
      0001B0 02                    3234 	.sleb128	2
      0001B1 01                    3235 	.db	1
      0001B2 09                    3236 	.db	9
      0001B3 00 08                 3237 	.dw	Smain$main$143-Smain$main$139
      0001B5 03                    3238 	.db	3
      0001B6 01                    3239 	.sleb128	1
      0001B7 01                    3240 	.db	1
      0001B8 09                    3241 	.db	9
      0001B9 00 0E                 3242 	.dw	Smain$main$148-Smain$main$143
      0001BB 03                    3243 	.db	3
      0001BC 01                    3244 	.sleb128	1
      0001BD 01                    3245 	.db	1
      0001BE 09                    3246 	.db	9
      0001BF 00 07                 3247 	.dw	Smain$main$151-Smain$main$148
      0001C1 03                    3248 	.db	3
      0001C2 02                    3249 	.sleb128	2
      0001C3 01                    3250 	.db	1
      0001C4 09                    3251 	.db	9
      0001C5 00 08                 3252 	.dw	Smain$main$155-Smain$main$151
      0001C7 03                    3253 	.db	3
      0001C8 01                    3254 	.sleb128	1
      0001C9 01                    3255 	.db	1
      0001CA 09                    3256 	.db	9
      0001CB 00 0E                 3257 	.dw	Smain$main$160-Smain$main$155
      0001CD 03                    3258 	.db	3
      0001CE 01                    3259 	.sleb128	1
      0001CF 01                    3260 	.db	1
      0001D0 09                    3261 	.db	9
      0001D1 00 07                 3262 	.dw	Smain$main$163-Smain$main$160
      0001D3 03                    3263 	.db	3
      0001D4 02                    3264 	.sleb128	2
      0001D5 01                    3265 	.db	1
      0001D6 09                    3266 	.db	9
      0001D7 00 08                 3267 	.dw	Smain$main$167-Smain$main$163
      0001D9 03                    3268 	.db	3
      0001DA 01                    3269 	.sleb128	1
      0001DB 01                    3270 	.db	1
      0001DC 09                    3271 	.db	9
      0001DD 00 0E                 3272 	.dw	Smain$main$172-Smain$main$167
      0001DF 03                    3273 	.db	3
      0001E0 01                    3274 	.sleb128	1
      0001E1 01                    3275 	.db	1
      0001E2 09                    3276 	.db	9
      0001E3 00 07                 3277 	.dw	Smain$main$175-Smain$main$172
      0001E5 03                    3278 	.db	3
      0001E6 02                    3279 	.sleb128	2
      0001E7 01                    3280 	.db	1
      0001E8 09                    3281 	.db	9
      0001E9 00 06                 3282 	.dw	Smain$main$179-Smain$main$175
      0001EB 03                    3283 	.db	3
      0001EC 02                    3284 	.sleb128	2
      0001ED 01                    3285 	.db	1
      0001EE 09                    3286 	.db	9
      0001EF 00 0C                 3287 	.dw	Smain$main$181-Smain$main$179
      0001F1 03                    3288 	.db	3
      0001F2 01                    3289 	.sleb128	1
      0001F3 01                    3290 	.db	1
      0001F4 09                    3291 	.db	9
      0001F5 00 08                 3292 	.dw	Smain$main$185-Smain$main$181
      0001F7 03                    3293 	.db	3
      0001F8 01                    3294 	.sleb128	1
      0001F9 01                    3295 	.db	1
      0001FA 09                    3296 	.db	9
      0001FB 00 0E                 3297 	.dw	Smain$main$190-Smain$main$185
      0001FD 03                    3298 	.db	3
      0001FE 01                    3299 	.sleb128	1
      0001FF 01                    3300 	.db	1
      000200 09                    3301 	.db	9
      000201 00 07                 3302 	.dw	Smain$main$193-Smain$main$190
      000203 03                    3303 	.db	3
      000204 01                    3304 	.sleb128	1
      000205 01                    3305 	.db	1
      000206 09                    3306 	.db	9
      000207 00 08                 3307 	.dw	Smain$main$195-Smain$main$193
      000209 03                    3308 	.db	3
      00020A 03                    3309 	.sleb128	3
      00020B 01                    3310 	.db	1
      00020C 09                    3311 	.db	9
      00020D 00 14                 3312 	.dw	Smain$main$197-Smain$main$195
      00020F 03                    3313 	.db	3
      000210 01                    3314 	.sleb128	1
      000211 01                    3315 	.db	1
      000212 09                    3316 	.db	9
      000213 00 08                 3317 	.dw	Smain$main$201-Smain$main$197
      000215 03                    3318 	.db	3
      000216 01                    3319 	.sleb128	1
      000217 01                    3320 	.db	1
      000218 09                    3321 	.db	9
      000219 00 0E                 3322 	.dw	Smain$main$206-Smain$main$201
      00021B 03                    3323 	.db	3
      00021C 01                    3324 	.sleb128	1
      00021D 01                    3325 	.db	1
      00021E 09                    3326 	.db	9
      00021F 00 07                 3327 	.dw	Smain$main$209-Smain$main$206
      000221 03                    3328 	.db	3
      000222 01                    3329 	.sleb128	1
      000223 01                    3330 	.db	1
      000224 09                    3331 	.db	9
      000225 00 08                 3332 	.dw	Smain$main$211-Smain$main$209
      000227 03                    3333 	.db	3
      000228 03                    3334 	.sleb128	3
      000229 01                    3335 	.db	1
      00022A 09                    3336 	.db	9
      00022B 00 0A                 3337 	.dw	Smain$main$213-Smain$main$211
      00022D 03                    3338 	.db	3
      00022E 01                    3339 	.sleb128	1
      00022F 01                    3340 	.db	1
      000230 09                    3341 	.db	9
      000231 00 08                 3342 	.dw	Smain$main$217-Smain$main$213
      000233 03                    3343 	.db	3
      000234 01                    3344 	.sleb128	1
      000235 01                    3345 	.db	1
      000236 09                    3346 	.db	9
      000237 00 0E                 3347 	.dw	Smain$main$222-Smain$main$217
      000239 03                    3348 	.db	3
      00023A 01                    3349 	.sleb128	1
      00023B 01                    3350 	.db	1
      00023C 09                    3351 	.db	9
      00023D 00 07                 3352 	.dw	Smain$main$225-Smain$main$222
      00023F 03                    3353 	.db	3
      000240 01                    3354 	.sleb128	1
      000241 01                    3355 	.db	1
      000242 09                    3356 	.db	9
      000243 00 08                 3357 	.dw	Smain$main$227-Smain$main$225
      000245 03                    3358 	.db	3
      000246 06                    3359 	.sleb128	6
      000247 01                    3360 	.db	1
      000248 09                    3361 	.db	9
      000249 00 18                 3362 	.dw	Smain$main$233-Smain$main$227
      00024B 03                    3363 	.db	3
      00024C 04                    3364 	.sleb128	4
      00024D 01                    3365 	.db	1
      00024E 09                    3366 	.db	9
      00024F 00 15                 3367 	.dw	Smain$main$242-Smain$main$233
      000251 03                    3368 	.db	3
      000252 02                    3369 	.sleb128	2
      000253 01                    3370 	.db	1
      000254 09                    3371 	.db	9
      000255 00 07                 3372 	.dw	Smain$main$244-Smain$main$242
      000257 03                    3373 	.db	3
      000258 01                    3374 	.sleb128	1
      000259 01                    3375 	.db	1
      00025A 09                    3376 	.db	9
      00025B 00 08                 3377 	.dw	Smain$main$248-Smain$main$244
      00025D 03                    3378 	.db	3
      00025E 01                    3379 	.sleb128	1
      00025F 01                    3380 	.db	1
      000260 09                    3381 	.db	9
      000261 00 0E                 3382 	.dw	Smain$main$253-Smain$main$248
      000263 03                    3383 	.db	3
      000264 01                    3384 	.sleb128	1
      000265 01                    3385 	.db	1
      000266 09                    3386 	.db	9
      000267 00 07                 3387 	.dw	Smain$main$258-Smain$main$253
      000269 03                    3388 	.db	3
      00026A 04                    3389 	.sleb128	4
      00026B 01                    3390 	.db	1
      00026C 09                    3391 	.db	9
      00026D 00 19                 3392 	.dw	Smain$main$261-Smain$main$258
      00026F 03                    3393 	.db	3
      000270 01                    3394 	.sleb128	1
      000271 01                    3395 	.db	1
      000272 09                    3396 	.db	9
      000273 00 08                 3397 	.dw	Smain$main$265-Smain$main$261
      000275 03                    3398 	.db	3
      000276 01                    3399 	.sleb128	1
      000277 01                    3400 	.db	1
      000278 09                    3401 	.db	9
      000279 00 0E                 3402 	.dw	Smain$main$270-Smain$main$265
      00027B 03                    3403 	.db	3
      00027C 01                    3404 	.sleb128	1
      00027D 01                    3405 	.db	1
      00027E 09                    3406 	.db	9
      00027F 00 07                 3407 	.dw	Smain$main$275-Smain$main$270
      000281 03                    3408 	.db	3
      000282 04                    3409 	.sleb128	4
      000283 01                    3410 	.db	1
      000284 09                    3411 	.db	9
      000285 00 17                 3412 	.dw	Smain$main$278-Smain$main$275
      000287 03                    3413 	.db	3
      000288 01                    3414 	.sleb128	1
      000289 01                    3415 	.db	1
      00028A 09                    3416 	.db	9
      00028B 00 08                 3417 	.dw	Smain$main$282-Smain$main$278
      00028D 03                    3418 	.db	3
      00028E 01                    3419 	.sleb128	1
      00028F 01                    3420 	.db	1
      000290 09                    3421 	.db	9
      000291 00 0E                 3422 	.dw	Smain$main$287-Smain$main$282
      000293 03                    3423 	.db	3
      000294 01                    3424 	.sleb128	1
      000295 01                    3425 	.db	1
      000296 09                    3426 	.db	9
      000297 00 07                 3427 	.dw	Smain$main$291-Smain$main$287
      000299 03                    3428 	.db	3
      00029A 04                    3429 	.sleb128	4
      00029B 01                    3430 	.db	1
      00029C 09                    3431 	.db	9
      00029D 00 08                 3432 	.dw	Smain$main$295-Smain$main$291
      00029F 03                    3433 	.db	3
      0002A0 01                    3434 	.sleb128	1
      0002A1 01                    3435 	.db	1
      0002A2 09                    3436 	.db	9
      0002A3 00 11                 3437 	.dw	Smain$main$301-Smain$main$295
      0002A5 03                    3438 	.db	3
      0002A6 01                    3439 	.sleb128	1
      0002A7 01                    3440 	.db	1
      0002A8 09                    3441 	.db	9
      0002A9 00 07                 3442 	.dw	Smain$main$304-Smain$main$301
      0002AB 03                    3443 	.db	3
      0002AC 02                    3444 	.sleb128	2
      0002AD 01                    3445 	.db	1
      0002AE 09                    3446 	.db	9
      0002AF 00 08                 3447 	.dw	Smain$main$308-Smain$main$304
      0002B1 03                    3448 	.db	3
      0002B2 01                    3449 	.sleb128	1
      0002B3 01                    3450 	.db	1
      0002B4 09                    3451 	.db	9
      0002B5 00 11                 3452 	.dw	Smain$main$314-Smain$main$308
      0002B7 03                    3453 	.db	3
      0002B8 01                    3454 	.sleb128	1
      0002B9 01                    3455 	.db	1
      0002BA 09                    3456 	.db	9
      0002BB 00 07                 3457 	.dw	Smain$main$318-Smain$main$314
      0002BD 03                    3458 	.db	3
      0002BE 05                    3459 	.sleb128	5
      0002BF 01                    3460 	.db	1
      0002C0 09                    3461 	.db	9
      0002C1 00 12                 3462 	.dw	Smain$main$320-Smain$main$318
      0002C3 03                    3463 	.db	3
      0002C4 0B                    3464 	.sleb128	11
      0002C5 01                    3465 	.db	1
      0002C6 09                    3466 	.db	9
      0002C7 00 14                 3467 	.dw	Smain$main$322-Smain$main$320
      0002C9 03                    3468 	.db	3
      0002CA 11                    3469 	.sleb128	17
      0002CB 01                    3470 	.db	1
      0002CC 09                    3471 	.db	9
      0002CD 00 14                 3472 	.dw	Smain$main$324-Smain$main$322
      0002CF 03                    3473 	.db	3
      0002D0 62                    3474 	.sleb128	-30
      0002D1 01                    3475 	.db	1
      0002D2 09                    3476 	.db	9
      0002D3 00 07                 3477 	.dw	Smain$main$326-Smain$main$324
      0002D5 03                    3478 	.db	3
      0002D6 02                    3479 	.sleb128	2
      0002D7 01                    3480 	.db	1
      0002D8 09                    3481 	.db	9
      0002D9 00 07                 3482 	.dw	Smain$main$328-Smain$main$326
      0002DB 03                    3483 	.db	3
      0002DC 01                    3484 	.sleb128	1
      0002DD 01                    3485 	.db	1
      0002DE 09                    3486 	.db	9
      0002DF 00 08                 3487 	.dw	Smain$main$332-Smain$main$328
      0002E1 03                    3488 	.db	3
      0002E2 01                    3489 	.sleb128	1
      0002E3 01                    3490 	.db	1
      0002E4 09                    3491 	.db	9
      0002E5 00 0E                 3492 	.dw	Smain$main$337-Smain$main$332
      0002E7 03                    3493 	.db	3
      0002E8 01                    3494 	.sleb128	1
      0002E9 01                    3495 	.db	1
      0002EA 09                    3496 	.db	9
      0002EB 00 07                 3497 	.dw	Smain$main$340-Smain$main$337
      0002ED 03                    3498 	.db	3
      0002EE 02                    3499 	.sleb128	2
      0002EF 01                    3500 	.db	1
      0002F0 09                    3501 	.db	9
      0002F1 00 08                 3502 	.dw	Smain$main$344-Smain$main$340
      0002F3 03                    3503 	.db	3
      0002F4 01                    3504 	.sleb128	1
      0002F5 01                    3505 	.db	1
      0002F6 09                    3506 	.db	9
      0002F7 00 0E                 3507 	.dw	Smain$main$349-Smain$main$344
      0002F9 03                    3508 	.db	3
      0002FA 01                    3509 	.sleb128	1
      0002FB 01                    3510 	.db	1
      0002FC 09                    3511 	.db	9
      0002FD 00 07                 3512 	.dw	Smain$main$353-Smain$main$349
      0002FF 03                    3513 	.db	3
      000300 04                    3514 	.sleb128	4
      000301 01                    3515 	.db	1
      000302 09                    3516 	.db	9
      000303 00 07                 3517 	.dw	Smain$main$355-Smain$main$353
      000305 03                    3518 	.db	3
      000306 01                    3519 	.sleb128	1
      000307 01                    3520 	.db	1
      000308 09                    3521 	.db	9
      000309 00 08                 3522 	.dw	Smain$main$359-Smain$main$355
      00030B 03                    3523 	.db	3
      00030C 01                    3524 	.sleb128	1
      00030D 01                    3525 	.db	1
      00030E 09                    3526 	.db	9
      00030F 00 0E                 3527 	.dw	Smain$main$364-Smain$main$359
      000311 03                    3528 	.db	3
      000312 01                    3529 	.sleb128	1
      000313 01                    3530 	.db	1
      000314 09                    3531 	.db	9
      000315 00 07                 3532 	.dw	Smain$main$367-Smain$main$364
      000317 03                    3533 	.db	3
      000318 02                    3534 	.sleb128	2
      000319 01                    3535 	.db	1
      00031A 09                    3536 	.db	9
      00031B 00 08                 3537 	.dw	Smain$main$371-Smain$main$367
      00031D 03                    3538 	.db	3
      00031E 01                    3539 	.sleb128	1
      00031F 01                    3540 	.db	1
      000320 09                    3541 	.db	9
      000321 00 0E                 3542 	.dw	Smain$main$376-Smain$main$371
      000323 03                    3543 	.db	3
      000324 01                    3544 	.sleb128	1
      000325 01                    3545 	.db	1
      000326 09                    3546 	.db	9
      000327 00 07                 3547 	.dw	Smain$main$379-Smain$main$376
      000329 03                    3548 	.db	3
      00032A 01                    3549 	.sleb128	1
      00032B 01                    3550 	.db	1
      00032C 09                    3551 	.db	9
      00032D 00 05                 3552 	.dw	Smain$main$380-Smain$main$379
      00032F 03                    3553 	.db	3
      000330 02                    3554 	.sleb128	2
      000331 01                    3555 	.db	1
      000332 09                    3556 	.db	9
      000333 00 08                 3557 	.dw	Smain$main$384-Smain$main$380
      000335 03                    3558 	.db	3
      000336 01                    3559 	.sleb128	1
      000337 01                    3560 	.db	1
      000338 09                    3561 	.db	9
      000339 00 11                 3562 	.dw	Smain$main$390-Smain$main$384
      00033B 03                    3563 	.db	3
      00033C 01                    3564 	.sleb128	1
      00033D 01                    3565 	.db	1
      00033E 09                    3566 	.db	9
      00033F 00 07                 3567 	.dw	Smain$main$393-Smain$main$390
      000341 03                    3568 	.db	3
      000342 01                    3569 	.sleb128	1
      000343 01                    3570 	.db	1
      000344 09                    3571 	.db	9
      000345 00 0B                 3572 	.dw	Smain$main$398-Smain$main$393
      000347 03                    3573 	.db	3
      000348 01                    3574 	.sleb128	1
      000349 01                    3575 	.db	1
      00034A 09                    3576 	.db	9
      00034B 00 08                 3577 	.dw	Smain$main$402-Smain$main$398
      00034D 03                    3578 	.db	3
      00034E 01                    3579 	.sleb128	1
      00034F 01                    3580 	.db	1
      000350 09                    3581 	.db	9
      000351 00 0B                 3582 	.dw	Smain$main$408-Smain$main$402
      000353 03                    3583 	.db	3
      000354 02                    3584 	.sleb128	2
      000355 01                    3585 	.db	1
      000356 09                    3586 	.db	9
      000357 00 07                 3587 	.dw	Smain$main$410-Smain$main$408
      000359 03                    3588 	.db	3
      00035A 01                    3589 	.sleb128	1
      00035B 01                    3590 	.db	1
      00035C 09                    3591 	.db	9
      00035D 00 08                 3592 	.dw	Smain$main$414-Smain$main$410
      00035F 03                    3593 	.db	3
      000360 01                    3594 	.sleb128	1
      000361 01                    3595 	.db	1
      000362 09                    3596 	.db	9
      000363 00 0E                 3597 	.dw	Smain$main$419-Smain$main$414
      000365 03                    3598 	.db	3
      000366 01                    3599 	.sleb128	1
      000367 01                    3600 	.db	1
      000368 09                    3601 	.db	9
      000369 00 07                 3602 	.dw	Smain$main$422-Smain$main$419
      00036B 03                    3603 	.db	3
      00036C 01                    3604 	.sleb128	1
      00036D 01                    3605 	.db	1
      00036E 09                    3606 	.db	9
      00036F 00 05                 3607 	.dw	Smain$main$423-Smain$main$422
      000371 03                    3608 	.db	3
      000372 02                    3609 	.sleb128	2
      000373 01                    3610 	.db	1
      000374 09                    3611 	.db	9
      000375 00 08                 3612 	.dw	Smain$main$427-Smain$main$423
      000377 03                    3613 	.db	3
      000378 01                    3614 	.sleb128	1
      000379 01                    3615 	.db	1
      00037A 09                    3616 	.db	9
      00037B 00 0E                 3617 	.dw	Smain$main$432-Smain$main$427
      00037D 03                    3618 	.db	3
      00037E 01                    3619 	.sleb128	1
      00037F 01                    3620 	.db	1
      000380 09                    3621 	.db	9
      000381 00 07                 3622 	.dw	Smain$main$435-Smain$main$432
      000383 03                    3623 	.db	3
      000384 02                    3624 	.sleb128	2
      000385 01                    3625 	.db	1
      000386 09                    3626 	.db	9
      000387 00 08                 3627 	.dw	Smain$main$439-Smain$main$435
      000389 03                    3628 	.db	3
      00038A 01                    3629 	.sleb128	1
      00038B 01                    3630 	.db	1
      00038C 09                    3631 	.db	9
      00038D 00 11                 3632 	.dw	Smain$main$445-Smain$main$439
      00038F 03                    3633 	.db	3
      000390 01                    3634 	.sleb128	1
      000391 01                    3635 	.db	1
      000392 09                    3636 	.db	9
      000393 00 07                 3637 	.dw	Smain$main$449-Smain$main$445
      000395 03                    3638 	.db	3
      000396 05                    3639 	.sleb128	5
      000397 01                    3640 	.db	1
      000398 09                    3641 	.db	9
      000399 00 07                 3642 	.dw	Smain$main$451-Smain$main$449
      00039B 03                    3643 	.db	3
      00039C 02                    3644 	.sleb128	2
      00039D 01                    3645 	.db	1
      00039E 09                    3646 	.db	9
      00039F 00 07                 3647 	.dw	Smain$main$453-Smain$main$451
      0003A1 03                    3648 	.db	3
      0003A2 01                    3649 	.sleb128	1
      0003A3 01                    3650 	.db	1
      0003A4 09                    3651 	.db	9
      0003A5 00 08                 3652 	.dw	Smain$main$457-Smain$main$453
      0003A7 03                    3653 	.db	3
      0003A8 01                    3654 	.sleb128	1
      0003A9 01                    3655 	.db	1
      0003AA 09                    3656 	.db	9
      0003AB 00 0E                 3657 	.dw	Smain$main$462-Smain$main$457
      0003AD 03                    3658 	.db	3
      0003AE 01                    3659 	.sleb128	1
      0003AF 01                    3660 	.db	1
      0003B0 09                    3661 	.db	9
      0003B1 00 07                 3662 	.dw	Smain$main$465-Smain$main$462
      0003B3 03                    3663 	.db	3
      0003B4 01                    3664 	.sleb128	1
      0003B5 01                    3665 	.db	1
      0003B6 09                    3666 	.db	9
      0003B7 00 05                 3667 	.dw	Smain$main$466-Smain$main$465
      0003B9 03                    3668 	.db	3
      0003BA 02                    3669 	.sleb128	2
      0003BB 01                    3670 	.db	1
      0003BC 09                    3671 	.db	9
      0003BD 00 08                 3672 	.dw	Smain$main$470-Smain$main$466
      0003BF 03                    3673 	.db	3
      0003C0 01                    3674 	.sleb128	1
      0003C1 01                    3675 	.db	1
      0003C2 09                    3676 	.db	9
      0003C3 00 0E                 3677 	.dw	Smain$main$475-Smain$main$470
      0003C5 03                    3678 	.db	3
      0003C6 01                    3679 	.sleb128	1
      0003C7 01                    3680 	.db	1
      0003C8 09                    3681 	.db	9
      0003C9 00 07                 3682 	.dw	Smain$main$478-Smain$main$475
      0003CB 03                    3683 	.db	3
      0003CC 02                    3684 	.sleb128	2
      0003CD 01                    3685 	.db	1
      0003CE 09                    3686 	.db	9
      0003CF 00 08                 3687 	.dw	Smain$main$482-Smain$main$478
      0003D1 03                    3688 	.db	3
      0003D2 01                    3689 	.sleb128	1
      0003D3 01                    3690 	.db	1
      0003D4 09                    3691 	.db	9
      0003D5 00 11                 3692 	.dw	Smain$main$488-Smain$main$482
      0003D7 03                    3693 	.db	3
      0003D8 01                    3694 	.sleb128	1
      0003D9 01                    3695 	.db	1
      0003DA 09                    3696 	.db	9
      0003DB 00 07                 3697 	.dw	Smain$main$492-Smain$main$488
      0003DD 03                    3698 	.db	3
      0003DE 02                    3699 	.sleb128	2
      0003DF 01                    3700 	.db	1
      0003E0 09                    3701 	.db	9
      0003E1 00 07                 3702 	.dw	Smain$main$494-Smain$main$492
      0003E3 03                    3703 	.db	3
      0003E4 01                    3704 	.sleb128	1
      0003E5 01                    3705 	.db	1
      0003E6 09                    3706 	.db	9
      0003E7 00 08                 3707 	.dw	Smain$main$498-Smain$main$494
      0003E9 03                    3708 	.db	3
      0003EA 01                    3709 	.sleb128	1
      0003EB 01                    3710 	.db	1
      0003EC 09                    3711 	.db	9
      0003ED 00 0E                 3712 	.dw	Smain$main$503-Smain$main$498
      0003EF 03                    3713 	.db	3
      0003F0 01                    3714 	.sleb128	1
      0003F1 01                    3715 	.db	1
      0003F2 09                    3716 	.db	9
      0003F3 00 07                 3717 	.dw	Smain$main$506-Smain$main$503
      0003F5 03                    3718 	.db	3
      0003F6 02                    3719 	.sleb128	2
      0003F7 01                    3720 	.db	1
      0003F8 09                    3721 	.db	9
      0003F9 00 08                 3722 	.dw	Smain$main$510-Smain$main$506
      0003FB 03                    3723 	.db	3
      0003FC 01                    3724 	.sleb128	1
      0003FD 01                    3725 	.db	1
      0003FE 09                    3726 	.db	9
      0003FF 00 0E                 3727 	.dw	Smain$main$515-Smain$main$510
      000401 03                    3728 	.db	3
      000402 01                    3729 	.sleb128	1
      000403 01                    3730 	.db	1
      000404 09                    3731 	.db	9
      000405 00 07                 3732 	.dw	Smain$main$519-Smain$main$515
      000407 03                    3733 	.db	3
      000408 04                    3734 	.sleb128	4
      000409 01                    3735 	.db	1
      00040A 09                    3736 	.db	9
      00040B 00 07                 3737 	.dw	Smain$main$521-Smain$main$519
      00040D 03                    3738 	.db	3
      00040E 01                    3739 	.sleb128	1
      00040F 01                    3740 	.db	1
      000410 09                    3741 	.db	9
      000411 00 08                 3742 	.dw	Smain$main$525-Smain$main$521
      000413 03                    3743 	.db	3
      000414 01                    3744 	.sleb128	1
      000415 01                    3745 	.db	1
      000416 09                    3746 	.db	9
      000417 00 0E                 3747 	.dw	Smain$main$530-Smain$main$525
      000419 03                    3748 	.db	3
      00041A 01                    3749 	.sleb128	1
      00041B 01                    3750 	.db	1
      00041C 09                    3751 	.db	9
      00041D 00 07                 3752 	.dw	Smain$main$533-Smain$main$530
      00041F 03                    3753 	.db	3
      000420 01                    3754 	.sleb128	1
      000421 01                    3755 	.db	1
      000422 09                    3756 	.db	9
      000423 00 05                 3757 	.dw	Smain$main$534-Smain$main$533
      000425 03                    3758 	.db	3
      000426 02                    3759 	.sleb128	2
      000427 01                    3760 	.db	1
      000428 09                    3761 	.db	9
      000429 00 08                 3762 	.dw	Smain$main$538-Smain$main$534
      00042B 03                    3763 	.db	3
      00042C 01                    3764 	.sleb128	1
      00042D 01                    3765 	.db	1
      00042E 09                    3766 	.db	9
      00042F 00 0E                 3767 	.dw	Smain$main$543-Smain$main$538
      000431 03                    3768 	.db	3
      000432 01                    3769 	.sleb128	1
      000433 01                    3770 	.db	1
      000434 09                    3771 	.db	9
      000435 00 07                 3772 	.dw	Smain$main$546-Smain$main$543
      000437 03                    3773 	.db	3
      000438 02                    3774 	.sleb128	2
      000439 01                    3775 	.db	1
      00043A 09                    3776 	.db	9
      00043B 00 08                 3777 	.dw	Smain$main$550-Smain$main$546
      00043D 03                    3778 	.db	3
      00043E 01                    3779 	.sleb128	1
      00043F 01                    3780 	.db	1
      000440 09                    3781 	.db	9
      000441 00 11                 3782 	.dw	Smain$main$556-Smain$main$550
      000443 03                    3783 	.db	3
      000444 01                    3784 	.sleb128	1
      000445 01                    3785 	.db	1
      000446 09                    3786 	.db	9
      000447 00 07                 3787 	.dw	Smain$main$559-Smain$main$556
      000449 03                    3788 	.db	3
      00044A 01                    3789 	.sleb128	1
      00044B 01                    3790 	.db	1
      00044C 09                    3791 	.db	9
      00044D 00 0B                 3792 	.dw	Smain$main$564-Smain$main$559
      00044F 03                    3793 	.db	3
      000450 01                    3794 	.sleb128	1
      000451 01                    3795 	.db	1
      000452 09                    3796 	.db	9
      000453 00 08                 3797 	.dw	Smain$main$568-Smain$main$564
      000455 03                    3798 	.db	3
      000456 01                    3799 	.sleb128	1
      000457 01                    3800 	.db	1
      000458 09                    3801 	.db	9
      000459 00 0B                 3802 	.dw	Smain$main$574-Smain$main$568
      00045B 03                    3803 	.db	3
      00045C 04                    3804 	.sleb128	4
      00045D 01                    3805 	.db	1
      00045E 09                    3806 	.db	9
      00045F 00 07                 3807 	.dw	Smain$main$576-Smain$main$574
      000461 03                    3808 	.db	3
      000462 02                    3809 	.sleb128	2
      000463 01                    3810 	.db	1
      000464 09                    3811 	.db	9
      000465 00 07                 3812 	.dw	Smain$main$578-Smain$main$576
      000467 03                    3813 	.db	3
      000468 01                    3814 	.sleb128	1
      000469 01                    3815 	.db	1
      00046A 09                    3816 	.db	9
      00046B 00 08                 3817 	.dw	Smain$main$582-Smain$main$578
      00046D 03                    3818 	.db	3
      00046E 01                    3819 	.sleb128	1
      00046F 01                    3820 	.db	1
      000470 09                    3821 	.db	9
      000471 00 0E                 3822 	.dw	Smain$main$587-Smain$main$582
      000473 03                    3823 	.db	3
      000474 01                    3824 	.sleb128	1
      000475 01                    3825 	.db	1
      000476 09                    3826 	.db	9
      000477 00 07                 3827 	.dw	Smain$main$590-Smain$main$587
      000479 03                    3828 	.db	3
      00047A 01                    3829 	.sleb128	1
      00047B 01                    3830 	.db	1
      00047C 09                    3831 	.db	9
      00047D 00 05                 3832 	.dw	Smain$main$591-Smain$main$590
      00047F 03                    3833 	.db	3
      000480 02                    3834 	.sleb128	2
      000481 01                    3835 	.db	1
      000482 09                    3836 	.db	9
      000483 00 08                 3837 	.dw	Smain$main$595-Smain$main$591
      000485 03                    3838 	.db	3
      000486 01                    3839 	.sleb128	1
      000487 01                    3840 	.db	1
      000488 09                    3841 	.db	9
      000489 00 0E                 3842 	.dw	Smain$main$600-Smain$main$595
      00048B 03                    3843 	.db	3
      00048C 01                    3844 	.sleb128	1
      00048D 01                    3845 	.db	1
      00048E 09                    3846 	.db	9
      00048F 00 07                 3847 	.dw	Smain$main$603-Smain$main$600
      000491 03                    3848 	.db	3
      000492 02                    3849 	.sleb128	2
      000493 01                    3850 	.db	1
      000494 09                    3851 	.db	9
      000495 00 08                 3852 	.dw	Smain$main$607-Smain$main$603
      000497 03                    3853 	.db	3
      000498 01                    3854 	.sleb128	1
      000499 01                    3855 	.db	1
      00049A 09                    3856 	.db	9
      00049B 00 11                 3857 	.dw	Smain$main$613-Smain$main$607
      00049D 03                    3858 	.db	3
      00049E 01                    3859 	.sleb128	1
      00049F 01                    3860 	.db	1
      0004A0 09                    3861 	.db	9
      0004A1 00 07                 3862 	.dw	Smain$main$616-Smain$main$613
      0004A3 03                    3863 	.db	3
      0004A4 01                    3864 	.sleb128	1
      0004A5 01                    3865 	.db	1
      0004A6 09                    3866 	.db	9
      0004A7 00 0B                 3867 	.dw	Smain$main$621-Smain$main$616
      0004A9 03                    3868 	.db	3
      0004AA 01                    3869 	.sleb128	1
      0004AB 01                    3870 	.db	1
      0004AC 09                    3871 	.db	9
      0004AD 00 08                 3872 	.dw	Smain$main$625-Smain$main$621
      0004AF 03                    3873 	.db	3
      0004B0 01                    3874 	.sleb128	1
      0004B1 01                    3875 	.db	1
      0004B2 09                    3876 	.db	9
      0004B3 00 0B                 3877 	.dw	Smain$main$631-Smain$main$625
      0004B5 03                    3878 	.db	3
      0004B6 02                    3879 	.sleb128	2
      0004B7 01                    3880 	.db	1
      0004B8 09                    3881 	.db	9
      0004B9 00 07                 3882 	.dw	Smain$main$633-Smain$main$631
      0004BB 03                    3883 	.db	3
      0004BC 01                    3884 	.sleb128	1
      0004BD 01                    3885 	.db	1
      0004BE 09                    3886 	.db	9
      0004BF 00 08                 3887 	.dw	Smain$main$637-Smain$main$633
      0004C1 03                    3888 	.db	3
      0004C2 01                    3889 	.sleb128	1
      0004C3 01                    3890 	.db	1
      0004C4 09                    3891 	.db	9
      0004C5 00 0E                 3892 	.dw	Smain$main$642-Smain$main$637
      0004C7 03                    3893 	.db	3
      0004C8 01                    3894 	.sleb128	1
      0004C9 01                    3895 	.db	1
      0004CA 09                    3896 	.db	9
      0004CB 00 07                 3897 	.dw	Smain$main$645-Smain$main$642
      0004CD 03                    3898 	.db	3
      0004CE 01                    3899 	.sleb128	1
      0004CF 01                    3900 	.db	1
      0004D0 09                    3901 	.db	9
      0004D1 00 05                 3902 	.dw	Smain$main$646-Smain$main$645
      0004D3 03                    3903 	.db	3
      0004D4 02                    3904 	.sleb128	2
      0004D5 01                    3905 	.db	1
      0004D6 09                    3906 	.db	9
      0004D7 00 08                 3907 	.dw	Smain$main$650-Smain$main$646
      0004D9 03                    3908 	.db	3
      0004DA 01                    3909 	.sleb128	1
      0004DB 01                    3910 	.db	1
      0004DC 09                    3911 	.db	9
      0004DD 00 0E                 3912 	.dw	Smain$main$655-Smain$main$650
      0004DF 03                    3913 	.db	3
      0004E0 01                    3914 	.sleb128	1
      0004E1 01                    3915 	.db	1
      0004E2 09                    3916 	.db	9
      0004E3 00 07                 3917 	.dw	Smain$main$658-Smain$main$655
      0004E5 03                    3918 	.db	3
      0004E6 02                    3919 	.sleb128	2
      0004E7 01                    3920 	.db	1
      0004E8 09                    3921 	.db	9
      0004E9 00 08                 3922 	.dw	Smain$main$662-Smain$main$658
      0004EB 03                    3923 	.db	3
      0004EC 01                    3924 	.sleb128	1
      0004ED 01                    3925 	.db	1
      0004EE 09                    3926 	.db	9
      0004EF 00 11                 3927 	.dw	Smain$main$668-Smain$main$662
      0004F1 03                    3928 	.db	3
      0004F2 01                    3929 	.sleb128	1
      0004F3 01                    3930 	.db	1
      0004F4 09                    3931 	.db	9
      0004F5 00 07                 3932 	.dw	Smain$main$672-Smain$main$668
      0004F7 03                    3933 	.db	3
      0004F8 02                    3934 	.sleb128	2
      0004F9 01                    3935 	.db	1
      0004FA 09                    3936 	.db	9
      0004FB 00 07                 3937 	.dw	Smain$main$674-Smain$main$672
      0004FD 03                    3938 	.db	3
      0004FE 01                    3939 	.sleb128	1
      0004FF 01                    3940 	.db	1
      000500 09                    3941 	.db	9
      000501 00 08                 3942 	.dw	Smain$main$678-Smain$main$674
      000503 03                    3943 	.db	3
      000504 01                    3944 	.sleb128	1
      000505 01                    3945 	.db	1
      000506 09                    3946 	.db	9
      000507 00 0E                 3947 	.dw	Smain$main$683-Smain$main$678
      000509 03                    3948 	.db	3
      00050A 01                    3949 	.sleb128	1
      00050B 01                    3950 	.db	1
      00050C 09                    3951 	.db	9
      00050D 00 07                 3952 	.dw	Smain$main$686-Smain$main$683
      00050F 03                    3953 	.db	3
      000510 02                    3954 	.sleb128	2
      000511 01                    3955 	.db	1
      000512 09                    3956 	.db	9
      000513 00 08                 3957 	.dw	Smain$main$690-Smain$main$686
      000515 03                    3958 	.db	3
      000516 01                    3959 	.sleb128	1
      000517 01                    3960 	.db	1
      000518 09                    3961 	.db	9
      000519 00 0E                 3962 	.dw	Smain$main$695-Smain$main$690
      00051B 03                    3963 	.db	3
      00051C 01                    3964 	.sleb128	1
      00051D 01                    3965 	.db	1
      00051E 09                    3966 	.db	9
      00051F 00 07                 3967 	.dw	Smain$main$699-Smain$main$695
      000521 03                    3968 	.db	3
      000522 02                    3969 	.sleb128	2
      000523 01                    3970 	.db	1
      000524 09                    3971 	.db	9
      000525 00 00                 3972 	.dw	Smain$main$700-Smain$main$699
      000527 03                    3973 	.db	3
      000528 02                    3974 	.sleb128	2
      000529 01                    3975 	.db	1
      00052A 09                    3976 	.db	9
      00052B 00 03                 3977 	.dw	Smain$main$701-Smain$main$700
      00052D 03                    3978 	.db	3
      00052E 01                    3979 	.sleb128	1
      00052F 01                    3980 	.db	1
      000530 09                    3981 	.db	9
      000531 00 08                 3982 	.dw	Smain$main$705-Smain$main$701
      000533 03                    3983 	.db	3
      000534 01                    3984 	.sleb128	1
      000535 01                    3985 	.db	1
      000536 09                    3986 	.db	9
      000537 00 08                 3987 	.dw	Smain$main$709-Smain$main$705
      000539 03                    3988 	.db	3
      00053A 01                    3989 	.sleb128	1
      00053B 01                    3990 	.db	1
      00053C 09                    3991 	.db	9
      00053D 00 0B                 3992 	.dw	Smain$main$714-Smain$main$709
      00053F 03                    3993 	.db	3
      000540 10                    3994 	.sleb128	16
      000541 01                    3995 	.db	1
      000542 09                    3996 	.db	9
      000543 00 03                 3997 	.dw	1+Smain$main$716-Smain$main$714
      000545 00                    3998 	.db	0
      000546 01                    3999 	.uleb128	1
      000547 01                    4000 	.db	1
      000548                       4001 Ldebug_line_end:
                                   4002 
                                   4003 	.area .debug_loc (NOLOAD)
      000000                       4004 Ldebug_loc_start:
      000000 00 00 87 F0           4005 	.dw	0,(Smain$main$715)
      000004 00 00 87 F1           4006 	.dw	0,(Smain$main$717)
      000008 00 02                 4007 	.dw	2
      00000A 78                    4008 	.db	120
      00000B 01                    4009 	.sleb128	1
      00000C 00 00 87 EB           4010 	.dw	0,(Smain$main$712)
      000010 00 00 87 F0           4011 	.dw	0,(Smain$main$715)
      000014 00 02                 4012 	.dw	2
      000016 78                    4013 	.db	120
      000017 30                    4014 	.sleb128	48
      000018 00 00 87 E7           4015 	.dw	0,(Smain$main$711)
      00001C 00 00 87 EB           4016 	.dw	0,(Smain$main$712)
      000020 00 02                 4017 	.dw	2
      000022 78                    4018 	.db	120
      000023 32                    4019 	.sleb128	50
      000024 00 00 87 E5           4020 	.dw	0,(Smain$main$710)
      000028 00 00 87 E7           4021 	.dw	0,(Smain$main$711)
      00002C 00 02                 4022 	.dw	2
      00002E 78                    4023 	.db	120
      00002F 31                    4024 	.sleb128	49
      000030 00 00 87 E3           4025 	.dw	0,(Smain$main$708)
      000034 00 00 87 E5           4026 	.dw	0,(Smain$main$710)
      000038 00 02                 4027 	.dw	2
      00003A 78                    4028 	.db	120
      00003B 30                    4029 	.sleb128	48
      00003C 00 00 87 DF           4030 	.dw	0,(Smain$main$707)
      000040 00 00 87 E3           4031 	.dw	0,(Smain$main$708)
      000044 00 02                 4032 	.dw	2
      000046 78                    4033 	.db	120
      000047 32                    4034 	.sleb128	50
      000048 00 00 87 DD           4035 	.dw	0,(Smain$main$706)
      00004C 00 00 87 DF           4036 	.dw	0,(Smain$main$707)
      000050 00 02                 4037 	.dw	2
      000052 78                    4038 	.db	120
      000053 31                    4039 	.sleb128	49
      000054 00 00 87 DB           4040 	.dw	0,(Smain$main$704)
      000058 00 00 87 DD           4041 	.dw	0,(Smain$main$706)
      00005C 00 02                 4042 	.dw	2
      00005E 78                    4043 	.db	120
      00005F 30                    4044 	.sleb128	48
      000060 00 00 87 D7           4045 	.dw	0,(Smain$main$703)
      000064 00 00 87 DB           4046 	.dw	0,(Smain$main$704)
      000068 00 02                 4047 	.dw	2
      00006A 78                    4048 	.db	120
      00006B 32                    4049 	.sleb128	50
      00006C 00 00 87 D5           4050 	.dw	0,(Smain$main$702)
      000070 00 00 87 D7           4051 	.dw	0,(Smain$main$703)
      000074 00 02                 4052 	.dw	2
      000076 78                    4053 	.db	120
      000077 31                    4054 	.sleb128	49
      000078 00 00 87 D0           4055 	.dw	0,(Smain$main$697)
      00007C 00 00 87 D5           4056 	.dw	0,(Smain$main$702)
      000080 00 02                 4057 	.dw	2
      000082 78                    4058 	.db	120
      000083 30                    4059 	.sleb128	48
      000084 00 00 87 CC           4060 	.dw	0,(Smain$main$696)
      000088 00 00 87 D0           4061 	.dw	0,(Smain$main$697)
      00008C 00 02                 4062 	.dw	2
      00008E 78                    4063 	.db	120
      00008F 32                    4064 	.sleb128	50
      000090 00 00 87 C9           4065 	.dw	0,(Smain$main$694)
      000094 00 00 87 CC           4066 	.dw	0,(Smain$main$696)
      000098 00 02                 4067 	.dw	2
      00009A 78                    4068 	.db	120
      00009B 30                    4069 	.sleb128	48
      00009C 00 00 87 C4           4070 	.dw	0,(Smain$main$693)
      0000A0 00 00 87 C9           4071 	.dw	0,(Smain$main$694)
      0000A4 00 02                 4072 	.dw	2
      0000A6 78                    4073 	.db	120
      0000A7 34                    4074 	.sleb128	52
      0000A8 00 00 87 BF           4075 	.dw	0,(Smain$main$692)
      0000AC 00 00 87 C4           4076 	.dw	0,(Smain$main$693)
      0000B0 00 02                 4077 	.dw	2
      0000B2 78                    4078 	.db	120
      0000B3 32                    4079 	.sleb128	50
      0000B4 00 00 87 BD           4080 	.dw	0,(Smain$main$691)
      0000B8 00 00 87 BF           4081 	.dw	0,(Smain$main$692)
      0000BC 00 02                 4082 	.dw	2
      0000BE 78                    4083 	.db	120
      0000BF 31                    4084 	.sleb128	49
      0000C0 00 00 87 BB           4085 	.dw	0,(Smain$main$689)
      0000C4 00 00 87 BD           4086 	.dw	0,(Smain$main$691)
      0000C8 00 02                 4087 	.dw	2
      0000CA 78                    4088 	.db	120
      0000CB 30                    4089 	.sleb128	48
      0000CC 00 00 87 B7           4090 	.dw	0,(Smain$main$688)
      0000D0 00 00 87 BB           4091 	.dw	0,(Smain$main$689)
      0000D4 00 02                 4092 	.dw	2
      0000D6 78                    4093 	.db	120
      0000D7 32                    4094 	.sleb128	50
      0000D8 00 00 87 B5           4095 	.dw	0,(Smain$main$687)
      0000DC 00 00 87 B7           4096 	.dw	0,(Smain$main$688)
      0000E0 00 02                 4097 	.dw	2
      0000E2 78                    4098 	.db	120
      0000E3 31                    4099 	.sleb128	49
      0000E4 00 00 87 B3           4100 	.dw	0,(Smain$main$685)
      0000E8 00 00 87 B5           4101 	.dw	0,(Smain$main$687)
      0000EC 00 02                 4102 	.dw	2
      0000EE 78                    4103 	.db	120
      0000EF 30                    4104 	.sleb128	48
      0000F0 00 00 87 AF           4105 	.dw	0,(Smain$main$684)
      0000F4 00 00 87 B3           4106 	.dw	0,(Smain$main$685)
      0000F8 00 02                 4107 	.dw	2
      0000FA 78                    4108 	.db	120
      0000FB 32                    4109 	.sleb128	50
      0000FC 00 00 87 AC           4110 	.dw	0,(Smain$main$682)
      000100 00 00 87 AF           4111 	.dw	0,(Smain$main$684)
      000104 00 02                 4112 	.dw	2
      000106 78                    4113 	.db	120
      000107 30                    4114 	.sleb128	48
      000108 00 00 87 A7           4115 	.dw	0,(Smain$main$681)
      00010C 00 00 87 AC           4116 	.dw	0,(Smain$main$682)
      000110 00 02                 4117 	.dw	2
      000112 78                    4118 	.db	120
      000113 34                    4119 	.sleb128	52
      000114 00 00 87 A2           4120 	.dw	0,(Smain$main$680)
      000118 00 00 87 A7           4121 	.dw	0,(Smain$main$681)
      00011C 00 02                 4122 	.dw	2
      00011E 78                    4123 	.db	120
      00011F 32                    4124 	.sleb128	50
      000120 00 00 87 A0           4125 	.dw	0,(Smain$main$679)
      000124 00 00 87 A2           4126 	.dw	0,(Smain$main$680)
      000128 00 02                 4127 	.dw	2
      00012A 78                    4128 	.db	120
      00012B 31                    4129 	.sleb128	49
      00012C 00 00 87 9E           4130 	.dw	0,(Smain$main$677)
      000130 00 00 87 A0           4131 	.dw	0,(Smain$main$679)
      000134 00 02                 4132 	.dw	2
      000136 78                    4133 	.db	120
      000137 30                    4134 	.sleb128	48
      000138 00 00 87 9A           4135 	.dw	0,(Smain$main$676)
      00013C 00 00 87 9E           4136 	.dw	0,(Smain$main$677)
      000140 00 02                 4137 	.dw	2
      000142 78                    4138 	.db	120
      000143 32                    4139 	.sleb128	50
      000144 00 00 87 98           4140 	.dw	0,(Smain$main$675)
      000148 00 00 87 9A           4141 	.dw	0,(Smain$main$676)
      00014C 00 02                 4142 	.dw	2
      00014E 78                    4143 	.db	120
      00014F 31                    4144 	.sleb128	49
      000150 00 00 87 8F           4145 	.dw	0,(Smain$main$670)
      000154 00 00 87 98           4146 	.dw	0,(Smain$main$675)
      000158 00 02                 4147 	.dw	2
      00015A 78                    4148 	.db	120
      00015B 30                    4149 	.sleb128	48
      00015C 00 00 87 8B           4150 	.dw	0,(Smain$main$669)
      000160 00 00 87 8F           4151 	.dw	0,(Smain$main$670)
      000164 00 02                 4152 	.dw	2
      000166 78                    4153 	.db	120
      000167 32                    4154 	.sleb128	50
      000168 00 00 87 88           4155 	.dw	0,(Smain$main$667)
      00016C 00 00 87 8B           4156 	.dw	0,(Smain$main$669)
      000170 00 02                 4157 	.dw	2
      000172 78                    4158 	.db	120
      000173 30                    4159 	.sleb128	48
      000174 00 00 87 83           4160 	.dw	0,(Smain$main$666)
      000178 00 00 87 88           4161 	.dw	0,(Smain$main$667)
      00017C 00 02                 4162 	.dw	2
      00017E 78                    4163 	.db	120
      00017F 36                    4164 	.sleb128	54
      000180 00 00 87 7E           4165 	.dw	0,(Smain$main$665)
      000184 00 00 87 83           4166 	.dw	0,(Smain$main$666)
      000188 00 02                 4167 	.dw	2
      00018A 78                    4168 	.db	120
      00018B 34                    4169 	.sleb128	52
      00018C 00 00 87 7C           4170 	.dw	0,(Smain$main$664)
      000190 00 00 87 7E           4171 	.dw	0,(Smain$main$665)
      000194 00 02                 4172 	.dw	2
      000196 78                    4173 	.db	120
      000197 33                    4174 	.sleb128	51
      000198 00 00 87 7A           4175 	.dw	0,(Smain$main$663)
      00019C 00 00 87 7C           4176 	.dw	0,(Smain$main$664)
      0001A0 00 02                 4177 	.dw	2
      0001A2 78                    4178 	.db	120
      0001A3 32                    4179 	.sleb128	50
      0001A4 00 00 87 77           4180 	.dw	0,(Smain$main$661)
      0001A8 00 00 87 7A           4181 	.dw	0,(Smain$main$663)
      0001AC 00 02                 4182 	.dw	2
      0001AE 78                    4183 	.db	120
      0001AF 30                    4184 	.sleb128	48
      0001B0 00 00 87 73           4185 	.dw	0,(Smain$main$660)
      0001B4 00 00 87 77           4186 	.dw	0,(Smain$main$661)
      0001B8 00 02                 4187 	.dw	2
      0001BA 78                    4188 	.db	120
      0001BB 32                    4189 	.sleb128	50
      0001BC 00 00 87 71           4190 	.dw	0,(Smain$main$659)
      0001C0 00 00 87 73           4191 	.dw	0,(Smain$main$660)
      0001C4 00 02                 4192 	.dw	2
      0001C6 78                    4193 	.db	120
      0001C7 31                    4194 	.sleb128	49
      0001C8 00 00 87 6F           4195 	.dw	0,(Smain$main$657)
      0001CC 00 00 87 71           4196 	.dw	0,(Smain$main$659)
      0001D0 00 02                 4197 	.dw	2
      0001D2 78                    4198 	.db	120
      0001D3 30                    4199 	.sleb128	48
      0001D4 00 00 87 6B           4200 	.dw	0,(Smain$main$656)
      0001D8 00 00 87 6F           4201 	.dw	0,(Smain$main$657)
      0001DC 00 02                 4202 	.dw	2
      0001DE 78                    4203 	.db	120
      0001DF 32                    4204 	.sleb128	50
      0001E0 00 00 87 68           4205 	.dw	0,(Smain$main$654)
      0001E4 00 00 87 6B           4206 	.dw	0,(Smain$main$656)
      0001E8 00 02                 4207 	.dw	2
      0001EA 78                    4208 	.db	120
      0001EB 30                    4209 	.sleb128	48
      0001EC 00 00 87 63           4210 	.dw	0,(Smain$main$653)
      0001F0 00 00 87 68           4211 	.dw	0,(Smain$main$654)
      0001F4 00 02                 4212 	.dw	2
      0001F6 78                    4213 	.db	120
      0001F7 34                    4214 	.sleb128	52
      0001F8 00 00 87 5E           4215 	.dw	0,(Smain$main$652)
      0001FC 00 00 87 63           4216 	.dw	0,(Smain$main$653)
      000200 00 02                 4217 	.dw	2
      000202 78                    4218 	.db	120
      000203 32                    4219 	.sleb128	50
      000204 00 00 87 5C           4220 	.dw	0,(Smain$main$651)
      000208 00 00 87 5E           4221 	.dw	0,(Smain$main$652)
      00020C 00 02                 4222 	.dw	2
      00020E 78                    4223 	.db	120
      00020F 31                    4224 	.sleb128	49
      000210 00 00 87 5A           4225 	.dw	0,(Smain$main$649)
      000214 00 00 87 5C           4226 	.dw	0,(Smain$main$651)
      000218 00 02                 4227 	.dw	2
      00021A 78                    4228 	.db	120
      00021B 30                    4229 	.sleb128	48
      00021C 00 00 87 56           4230 	.dw	0,(Smain$main$648)
      000220 00 00 87 5A           4231 	.dw	0,(Smain$main$649)
      000224 00 02                 4232 	.dw	2
      000226 78                    4233 	.db	120
      000227 32                    4234 	.sleb128	50
      000228 00 00 87 54           4235 	.dw	0,(Smain$main$647)
      00022C 00 00 87 56           4236 	.dw	0,(Smain$main$648)
      000230 00 02                 4237 	.dw	2
      000232 78                    4238 	.db	120
      000233 31                    4239 	.sleb128	49
      000234 00 00 87 4D           4240 	.dw	0,(Smain$main$644)
      000238 00 00 87 54           4241 	.dw	0,(Smain$main$647)
      00023C 00 02                 4242 	.dw	2
      00023E 78                    4243 	.db	120
      00023F 30                    4244 	.sleb128	48
      000240 00 00 87 49           4245 	.dw	0,(Smain$main$643)
      000244 00 00 87 4D           4246 	.dw	0,(Smain$main$644)
      000248 00 02                 4247 	.dw	2
      00024A 78                    4248 	.db	120
      00024B 32                    4249 	.sleb128	50
      00024C 00 00 87 46           4250 	.dw	0,(Smain$main$641)
      000250 00 00 87 49           4251 	.dw	0,(Smain$main$643)
      000254 00 02                 4252 	.dw	2
      000256 78                    4253 	.db	120
      000257 30                    4254 	.sleb128	48
      000258 00 00 87 41           4255 	.dw	0,(Smain$main$640)
      00025C 00 00 87 46           4256 	.dw	0,(Smain$main$641)
      000260 00 02                 4257 	.dw	2
      000262 78                    4258 	.db	120
      000263 34                    4259 	.sleb128	52
      000264 00 00 87 3C           4260 	.dw	0,(Smain$main$639)
      000268 00 00 87 41           4261 	.dw	0,(Smain$main$640)
      00026C 00 02                 4262 	.dw	2
      00026E 78                    4263 	.db	120
      00026F 32                    4264 	.sleb128	50
      000270 00 00 87 3A           4265 	.dw	0,(Smain$main$638)
      000274 00 00 87 3C           4266 	.dw	0,(Smain$main$639)
      000278 00 02                 4267 	.dw	2
      00027A 78                    4268 	.db	120
      00027B 31                    4269 	.sleb128	49
      00027C 00 00 87 38           4270 	.dw	0,(Smain$main$636)
      000280 00 00 87 3A           4271 	.dw	0,(Smain$main$638)
      000284 00 02                 4272 	.dw	2
      000286 78                    4273 	.db	120
      000287 30                    4274 	.sleb128	48
      000288 00 00 87 34           4275 	.dw	0,(Smain$main$635)
      00028C 00 00 87 38           4276 	.dw	0,(Smain$main$636)
      000290 00 02                 4277 	.dw	2
      000292 78                    4278 	.db	120
      000293 32                    4279 	.sleb128	50
      000294 00 00 87 32           4280 	.dw	0,(Smain$main$634)
      000298 00 00 87 34           4281 	.dw	0,(Smain$main$635)
      00029C 00 02                 4282 	.dw	2
      00029E 78                    4283 	.db	120
      00029F 31                    4284 	.sleb128	49
      0002A0 00 00 87 29           4285 	.dw	0,(Smain$main$629)
      0002A4 00 00 87 32           4286 	.dw	0,(Smain$main$634)
      0002A8 00 02                 4287 	.dw	2
      0002AA 78                    4288 	.db	120
      0002AB 30                    4289 	.sleb128	48
      0002AC 00 00 87 24           4290 	.dw	0,(Smain$main$628)
      0002B0 00 00 87 29           4291 	.dw	0,(Smain$main$629)
      0002B4 00 02                 4292 	.dw	2
      0002B6 78                    4293 	.db	120
      0002B7 33                    4294 	.sleb128	51
      0002B8 00 00 87 22           4295 	.dw	0,(Smain$main$627)
      0002BC 00 00 87 24           4296 	.dw	0,(Smain$main$628)
      0002C0 00 02                 4297 	.dw	2
      0002C2 78                    4298 	.db	120
      0002C3 32                    4299 	.sleb128	50
      0002C4 00 00 87 20           4300 	.dw	0,(Smain$main$626)
      0002C8 00 00 87 22           4301 	.dw	0,(Smain$main$627)
      0002CC 00 02                 4302 	.dw	2
      0002CE 78                    4303 	.db	120
      0002CF 31                    4304 	.sleb128	49
      0002D0 00 00 87 1E           4305 	.dw	0,(Smain$main$624)
      0002D4 00 00 87 20           4306 	.dw	0,(Smain$main$626)
      0002D8 00 02                 4307 	.dw	2
      0002DA 78                    4308 	.db	120
      0002DB 30                    4309 	.sleb128	48
      0002DC 00 00 87 1A           4310 	.dw	0,(Smain$main$623)
      0002E0 00 00 87 1E           4311 	.dw	0,(Smain$main$624)
      0002E4 00 02                 4312 	.dw	2
      0002E6 78                    4313 	.db	120
      0002E7 32                    4314 	.sleb128	50
      0002E8 00 00 87 18           4315 	.dw	0,(Smain$main$622)
      0002EC 00 00 87 1A           4316 	.dw	0,(Smain$main$623)
      0002F0 00 02                 4317 	.dw	2
      0002F2 78                    4318 	.db	120
      0002F3 31                    4319 	.sleb128	49
      0002F4 00 00 87 16           4320 	.dw	0,(Smain$main$620)
      0002F8 00 00 87 18           4321 	.dw	0,(Smain$main$622)
      0002FC 00 02                 4322 	.dw	2
      0002FE 78                    4323 	.db	120
      0002FF 30                    4324 	.sleb128	48
      000300 00 00 87 11           4325 	.dw	0,(Smain$main$619)
      000304 00 00 87 16           4326 	.dw	0,(Smain$main$620)
      000308 00 02                 4327 	.dw	2
      00030A 78                    4328 	.db	120
      00030B 33                    4329 	.sleb128	51
      00030C 00 00 87 0F           4330 	.dw	0,(Smain$main$618)
      000310 00 00 87 11           4331 	.dw	0,(Smain$main$619)
      000314 00 02                 4332 	.dw	2
      000316 78                    4333 	.db	120
      000317 32                    4334 	.sleb128	50
      000318 00 00 87 0D           4335 	.dw	0,(Smain$main$617)
      00031C 00 00 87 0F           4336 	.dw	0,(Smain$main$618)
      000320 00 02                 4337 	.dw	2
      000322 78                    4338 	.db	120
      000323 31                    4339 	.sleb128	49
      000324 00 00 87 0B           4340 	.dw	0,(Smain$main$615)
      000328 00 00 87 0D           4341 	.dw	0,(Smain$main$617)
      00032C 00 02                 4342 	.dw	2
      00032E 78                    4343 	.db	120
      00032F 30                    4344 	.sleb128	48
      000330 00 00 87 07           4345 	.dw	0,(Smain$main$614)
      000334 00 00 87 0B           4346 	.dw	0,(Smain$main$615)
      000338 00 02                 4347 	.dw	2
      00033A 78                    4348 	.db	120
      00033B 32                    4349 	.sleb128	50
      00033C 00 00 87 04           4350 	.dw	0,(Smain$main$612)
      000340 00 00 87 07           4351 	.dw	0,(Smain$main$614)
      000344 00 02                 4352 	.dw	2
      000346 78                    4353 	.db	120
      000347 30                    4354 	.sleb128	48
      000348 00 00 86 FF           4355 	.dw	0,(Smain$main$611)
      00034C 00 00 87 04           4356 	.dw	0,(Smain$main$612)
      000350 00 02                 4357 	.dw	2
      000352 78                    4358 	.db	120
      000353 36                    4359 	.sleb128	54
      000354 00 00 86 FA           4360 	.dw	0,(Smain$main$610)
      000358 00 00 86 FF           4361 	.dw	0,(Smain$main$611)
      00035C 00 02                 4362 	.dw	2
      00035E 78                    4363 	.db	120
      00035F 34                    4364 	.sleb128	52
      000360 00 00 86 F8           4365 	.dw	0,(Smain$main$609)
      000364 00 00 86 FA           4366 	.dw	0,(Smain$main$610)
      000368 00 02                 4367 	.dw	2
      00036A 78                    4368 	.db	120
      00036B 33                    4369 	.sleb128	51
      00036C 00 00 86 F6           4370 	.dw	0,(Smain$main$608)
      000370 00 00 86 F8           4371 	.dw	0,(Smain$main$609)
      000374 00 02                 4372 	.dw	2
      000376 78                    4373 	.db	120
      000377 32                    4374 	.sleb128	50
      000378 00 00 86 F3           4375 	.dw	0,(Smain$main$606)
      00037C 00 00 86 F6           4376 	.dw	0,(Smain$main$608)
      000380 00 02                 4377 	.dw	2
      000382 78                    4378 	.db	120
      000383 30                    4379 	.sleb128	48
      000384 00 00 86 EF           4380 	.dw	0,(Smain$main$605)
      000388 00 00 86 F3           4381 	.dw	0,(Smain$main$606)
      00038C 00 02                 4382 	.dw	2
      00038E 78                    4383 	.db	120
      00038F 32                    4384 	.sleb128	50
      000390 00 00 86 ED           4385 	.dw	0,(Smain$main$604)
      000394 00 00 86 EF           4386 	.dw	0,(Smain$main$605)
      000398 00 02                 4387 	.dw	2
      00039A 78                    4388 	.db	120
      00039B 31                    4389 	.sleb128	49
      00039C 00 00 86 EB           4390 	.dw	0,(Smain$main$602)
      0003A0 00 00 86 ED           4391 	.dw	0,(Smain$main$604)
      0003A4 00 02                 4392 	.dw	2
      0003A6 78                    4393 	.db	120
      0003A7 30                    4394 	.sleb128	48
      0003A8 00 00 86 E7           4395 	.dw	0,(Smain$main$601)
      0003AC 00 00 86 EB           4396 	.dw	0,(Smain$main$602)
      0003B0 00 02                 4397 	.dw	2
      0003B2 78                    4398 	.db	120
      0003B3 32                    4399 	.sleb128	50
      0003B4 00 00 86 E4           4400 	.dw	0,(Smain$main$599)
      0003B8 00 00 86 E7           4401 	.dw	0,(Smain$main$601)
      0003BC 00 02                 4402 	.dw	2
      0003BE 78                    4403 	.db	120
      0003BF 30                    4404 	.sleb128	48
      0003C0 00 00 86 DF           4405 	.dw	0,(Smain$main$598)
      0003C4 00 00 86 E4           4406 	.dw	0,(Smain$main$599)
      0003C8 00 02                 4407 	.dw	2
      0003CA 78                    4408 	.db	120
      0003CB 34                    4409 	.sleb128	52
      0003CC 00 00 86 DA           4410 	.dw	0,(Smain$main$597)
      0003D0 00 00 86 DF           4411 	.dw	0,(Smain$main$598)
      0003D4 00 02                 4412 	.dw	2
      0003D6 78                    4413 	.db	120
      0003D7 32                    4414 	.sleb128	50
      0003D8 00 00 86 D8           4415 	.dw	0,(Smain$main$596)
      0003DC 00 00 86 DA           4416 	.dw	0,(Smain$main$597)
      0003E0 00 02                 4417 	.dw	2
      0003E2 78                    4418 	.db	120
      0003E3 31                    4419 	.sleb128	49
      0003E4 00 00 86 D6           4420 	.dw	0,(Smain$main$594)
      0003E8 00 00 86 D8           4421 	.dw	0,(Smain$main$596)
      0003EC 00 02                 4422 	.dw	2
      0003EE 78                    4423 	.db	120
      0003EF 30                    4424 	.sleb128	48
      0003F0 00 00 86 D2           4425 	.dw	0,(Smain$main$593)
      0003F4 00 00 86 D6           4426 	.dw	0,(Smain$main$594)
      0003F8 00 02                 4427 	.dw	2
      0003FA 78                    4428 	.db	120
      0003FB 32                    4429 	.sleb128	50
      0003FC 00 00 86 D0           4430 	.dw	0,(Smain$main$592)
      000400 00 00 86 D2           4431 	.dw	0,(Smain$main$593)
      000404 00 02                 4432 	.dw	2
      000406 78                    4433 	.db	120
      000407 31                    4434 	.sleb128	49
      000408 00 00 86 C9           4435 	.dw	0,(Smain$main$589)
      00040C 00 00 86 D0           4436 	.dw	0,(Smain$main$592)
      000410 00 02                 4437 	.dw	2
      000412 78                    4438 	.db	120
      000413 30                    4439 	.sleb128	48
      000414 00 00 86 C5           4440 	.dw	0,(Smain$main$588)
      000418 00 00 86 C9           4441 	.dw	0,(Smain$main$589)
      00041C 00 02                 4442 	.dw	2
      00041E 78                    4443 	.db	120
      00041F 32                    4444 	.sleb128	50
      000420 00 00 86 C2           4445 	.dw	0,(Smain$main$586)
      000424 00 00 86 C5           4446 	.dw	0,(Smain$main$588)
      000428 00 02                 4447 	.dw	2
      00042A 78                    4448 	.db	120
      00042B 30                    4449 	.sleb128	48
      00042C 00 00 86 BD           4450 	.dw	0,(Smain$main$585)
      000430 00 00 86 C2           4451 	.dw	0,(Smain$main$586)
      000434 00 02                 4452 	.dw	2
      000436 78                    4453 	.db	120
      000437 34                    4454 	.sleb128	52
      000438 00 00 86 B8           4455 	.dw	0,(Smain$main$584)
      00043C 00 00 86 BD           4456 	.dw	0,(Smain$main$585)
      000440 00 02                 4457 	.dw	2
      000442 78                    4458 	.db	120
      000443 32                    4459 	.sleb128	50
      000444 00 00 86 B6           4460 	.dw	0,(Smain$main$583)
      000448 00 00 86 B8           4461 	.dw	0,(Smain$main$584)
      00044C 00 02                 4462 	.dw	2
      00044E 78                    4463 	.db	120
      00044F 31                    4464 	.sleb128	49
      000450 00 00 86 B4           4465 	.dw	0,(Smain$main$581)
      000454 00 00 86 B6           4466 	.dw	0,(Smain$main$583)
      000458 00 02                 4467 	.dw	2
      00045A 78                    4468 	.db	120
      00045B 30                    4469 	.sleb128	48
      00045C 00 00 86 B0           4470 	.dw	0,(Smain$main$580)
      000460 00 00 86 B4           4471 	.dw	0,(Smain$main$581)
      000464 00 02                 4472 	.dw	2
      000466 78                    4473 	.db	120
      000467 32                    4474 	.sleb128	50
      000468 00 00 86 AE           4475 	.dw	0,(Smain$main$579)
      00046C 00 00 86 B0           4476 	.dw	0,(Smain$main$580)
      000470 00 02                 4477 	.dw	2
      000472 78                    4478 	.db	120
      000473 31                    4479 	.sleb128	49
      000474 00 00 86 9E           4480 	.dw	0,(Smain$main$572)
      000478 00 00 86 AE           4481 	.dw	0,(Smain$main$579)
      00047C 00 02                 4482 	.dw	2
      00047E 78                    4483 	.db	120
      00047F 30                    4484 	.sleb128	48
      000480 00 00 86 99           4485 	.dw	0,(Smain$main$571)
      000484 00 00 86 9E           4486 	.dw	0,(Smain$main$572)
      000488 00 02                 4487 	.dw	2
      00048A 78                    4488 	.db	120
      00048B 33                    4489 	.sleb128	51
      00048C 00 00 86 97           4490 	.dw	0,(Smain$main$570)
      000490 00 00 86 99           4491 	.dw	0,(Smain$main$571)
      000494 00 02                 4492 	.dw	2
      000496 78                    4493 	.db	120
      000497 32                    4494 	.sleb128	50
      000498 00 00 86 95           4495 	.dw	0,(Smain$main$569)
      00049C 00 00 86 97           4496 	.dw	0,(Smain$main$570)
      0004A0 00 02                 4497 	.dw	2
      0004A2 78                    4498 	.db	120
      0004A3 31                    4499 	.sleb128	49
      0004A4 00 00 86 93           4500 	.dw	0,(Smain$main$567)
      0004A8 00 00 86 95           4501 	.dw	0,(Smain$main$569)
      0004AC 00 02                 4502 	.dw	2
      0004AE 78                    4503 	.db	120
      0004AF 30                    4504 	.sleb128	48
      0004B0 00 00 86 8F           4505 	.dw	0,(Smain$main$566)
      0004B4 00 00 86 93           4506 	.dw	0,(Smain$main$567)
      0004B8 00 02                 4507 	.dw	2
      0004BA 78                    4508 	.db	120
      0004BB 32                    4509 	.sleb128	50
      0004BC 00 00 86 8D           4510 	.dw	0,(Smain$main$565)
      0004C0 00 00 86 8F           4511 	.dw	0,(Smain$main$566)
      0004C4 00 02                 4512 	.dw	2
      0004C6 78                    4513 	.db	120
      0004C7 31                    4514 	.sleb128	49
      0004C8 00 00 86 8B           4515 	.dw	0,(Smain$main$563)
      0004CC 00 00 86 8D           4516 	.dw	0,(Smain$main$565)
      0004D0 00 02                 4517 	.dw	2
      0004D2 78                    4518 	.db	120
      0004D3 30                    4519 	.sleb128	48
      0004D4 00 00 86 86           4520 	.dw	0,(Smain$main$562)
      0004D8 00 00 86 8B           4521 	.dw	0,(Smain$main$563)
      0004DC 00 02                 4522 	.dw	2
      0004DE 78                    4523 	.db	120
      0004DF 33                    4524 	.sleb128	51
      0004E0 00 00 86 84           4525 	.dw	0,(Smain$main$561)
      0004E4 00 00 86 86           4526 	.dw	0,(Smain$main$562)
      0004E8 00 02                 4527 	.dw	2
      0004EA 78                    4528 	.db	120
      0004EB 32                    4529 	.sleb128	50
      0004EC 00 00 86 82           4530 	.dw	0,(Smain$main$560)
      0004F0 00 00 86 84           4531 	.dw	0,(Smain$main$561)
      0004F4 00 02                 4532 	.dw	2
      0004F6 78                    4533 	.db	120
      0004F7 31                    4534 	.sleb128	49
      0004F8 00 00 86 80           4535 	.dw	0,(Smain$main$558)
      0004FC 00 00 86 82           4536 	.dw	0,(Smain$main$560)
      000500 00 02                 4537 	.dw	2
      000502 78                    4538 	.db	120
      000503 30                    4539 	.sleb128	48
      000504 00 00 86 7C           4540 	.dw	0,(Smain$main$557)
      000508 00 00 86 80           4541 	.dw	0,(Smain$main$558)
      00050C 00 02                 4542 	.dw	2
      00050E 78                    4543 	.db	120
      00050F 32                    4544 	.sleb128	50
      000510 00 00 86 79           4545 	.dw	0,(Smain$main$555)
      000514 00 00 86 7C           4546 	.dw	0,(Smain$main$557)
      000518 00 02                 4547 	.dw	2
      00051A 78                    4548 	.db	120
      00051B 30                    4549 	.sleb128	48
      00051C 00 00 86 74           4550 	.dw	0,(Smain$main$554)
      000520 00 00 86 79           4551 	.dw	0,(Smain$main$555)
      000524 00 02                 4552 	.dw	2
      000526 78                    4553 	.db	120
      000527 36                    4554 	.sleb128	54
      000528 00 00 86 6F           4555 	.dw	0,(Smain$main$553)
      00052C 00 00 86 74           4556 	.dw	0,(Smain$main$554)
      000530 00 02                 4557 	.dw	2
      000532 78                    4558 	.db	120
      000533 34                    4559 	.sleb128	52
      000534 00 00 86 6D           4560 	.dw	0,(Smain$main$552)
      000538 00 00 86 6F           4561 	.dw	0,(Smain$main$553)
      00053C 00 02                 4562 	.dw	2
      00053E 78                    4563 	.db	120
      00053F 33                    4564 	.sleb128	51
      000540 00 00 86 6B           4565 	.dw	0,(Smain$main$551)
      000544 00 00 86 6D           4566 	.dw	0,(Smain$main$552)
      000548 00 02                 4567 	.dw	2
      00054A 78                    4568 	.db	120
      00054B 32                    4569 	.sleb128	50
      00054C 00 00 86 68           4570 	.dw	0,(Smain$main$549)
      000550 00 00 86 6B           4571 	.dw	0,(Smain$main$551)
      000554 00 02                 4572 	.dw	2
      000556 78                    4573 	.db	120
      000557 30                    4574 	.sleb128	48
      000558 00 00 86 64           4575 	.dw	0,(Smain$main$548)
      00055C 00 00 86 68           4576 	.dw	0,(Smain$main$549)
      000560 00 02                 4577 	.dw	2
      000562 78                    4578 	.db	120
      000563 32                    4579 	.sleb128	50
      000564 00 00 86 62           4580 	.dw	0,(Smain$main$547)
      000568 00 00 86 64           4581 	.dw	0,(Smain$main$548)
      00056C 00 02                 4582 	.dw	2
      00056E 78                    4583 	.db	120
      00056F 31                    4584 	.sleb128	49
      000570 00 00 86 60           4585 	.dw	0,(Smain$main$545)
      000574 00 00 86 62           4586 	.dw	0,(Smain$main$547)
      000578 00 02                 4587 	.dw	2
      00057A 78                    4588 	.db	120
      00057B 30                    4589 	.sleb128	48
      00057C 00 00 86 5C           4590 	.dw	0,(Smain$main$544)
      000580 00 00 86 60           4591 	.dw	0,(Smain$main$545)
      000584 00 02                 4592 	.dw	2
      000586 78                    4593 	.db	120
      000587 32                    4594 	.sleb128	50
      000588 00 00 86 59           4595 	.dw	0,(Smain$main$542)
      00058C 00 00 86 5C           4596 	.dw	0,(Smain$main$544)
      000590 00 02                 4597 	.dw	2
      000592 78                    4598 	.db	120
      000593 30                    4599 	.sleb128	48
      000594 00 00 86 54           4600 	.dw	0,(Smain$main$541)
      000598 00 00 86 59           4601 	.dw	0,(Smain$main$542)
      00059C 00 02                 4602 	.dw	2
      00059E 78                    4603 	.db	120
      00059F 34                    4604 	.sleb128	52
      0005A0 00 00 86 4F           4605 	.dw	0,(Smain$main$540)
      0005A4 00 00 86 54           4606 	.dw	0,(Smain$main$541)
      0005A8 00 02                 4607 	.dw	2
      0005AA 78                    4608 	.db	120
      0005AB 32                    4609 	.sleb128	50
      0005AC 00 00 86 4D           4610 	.dw	0,(Smain$main$539)
      0005B0 00 00 86 4F           4611 	.dw	0,(Smain$main$540)
      0005B4 00 02                 4612 	.dw	2
      0005B6 78                    4613 	.db	120
      0005B7 31                    4614 	.sleb128	49
      0005B8 00 00 86 4B           4615 	.dw	0,(Smain$main$537)
      0005BC 00 00 86 4D           4616 	.dw	0,(Smain$main$539)
      0005C0 00 02                 4617 	.dw	2
      0005C2 78                    4618 	.db	120
      0005C3 30                    4619 	.sleb128	48
      0005C4 00 00 86 47           4620 	.dw	0,(Smain$main$536)
      0005C8 00 00 86 4B           4621 	.dw	0,(Smain$main$537)
      0005CC 00 02                 4622 	.dw	2
      0005CE 78                    4623 	.db	120
      0005CF 32                    4624 	.sleb128	50
      0005D0 00 00 86 45           4625 	.dw	0,(Smain$main$535)
      0005D4 00 00 86 47           4626 	.dw	0,(Smain$main$536)
      0005D8 00 02                 4627 	.dw	2
      0005DA 78                    4628 	.db	120
      0005DB 31                    4629 	.sleb128	49
      0005DC 00 00 86 3E           4630 	.dw	0,(Smain$main$532)
      0005E0 00 00 86 45           4631 	.dw	0,(Smain$main$535)
      0005E4 00 02                 4632 	.dw	2
      0005E6 78                    4633 	.db	120
      0005E7 30                    4634 	.sleb128	48
      0005E8 00 00 86 3A           4635 	.dw	0,(Smain$main$531)
      0005EC 00 00 86 3E           4636 	.dw	0,(Smain$main$532)
      0005F0 00 02                 4637 	.dw	2
      0005F2 78                    4638 	.db	120
      0005F3 32                    4639 	.sleb128	50
      0005F4 00 00 86 37           4640 	.dw	0,(Smain$main$529)
      0005F8 00 00 86 3A           4641 	.dw	0,(Smain$main$531)
      0005FC 00 02                 4642 	.dw	2
      0005FE 78                    4643 	.db	120
      0005FF 30                    4644 	.sleb128	48
      000600 00 00 86 32           4645 	.dw	0,(Smain$main$528)
      000604 00 00 86 37           4646 	.dw	0,(Smain$main$529)
      000608 00 02                 4647 	.dw	2
      00060A 78                    4648 	.db	120
      00060B 34                    4649 	.sleb128	52
      00060C 00 00 86 2D           4650 	.dw	0,(Smain$main$527)
      000610 00 00 86 32           4651 	.dw	0,(Smain$main$528)
      000614 00 02                 4652 	.dw	2
      000616 78                    4653 	.db	120
      000617 32                    4654 	.sleb128	50
      000618 00 00 86 2B           4655 	.dw	0,(Smain$main$526)
      00061C 00 00 86 2D           4656 	.dw	0,(Smain$main$527)
      000620 00 02                 4657 	.dw	2
      000622 78                    4658 	.db	120
      000623 31                    4659 	.sleb128	49
      000624 00 00 86 29           4660 	.dw	0,(Smain$main$524)
      000628 00 00 86 2B           4661 	.dw	0,(Smain$main$526)
      00062C 00 02                 4662 	.dw	2
      00062E 78                    4663 	.db	120
      00062F 30                    4664 	.sleb128	48
      000630 00 00 86 25           4665 	.dw	0,(Smain$main$523)
      000634 00 00 86 29           4666 	.dw	0,(Smain$main$524)
      000638 00 02                 4667 	.dw	2
      00063A 78                    4668 	.db	120
      00063B 32                    4669 	.sleb128	50
      00063C 00 00 86 23           4670 	.dw	0,(Smain$main$522)
      000640 00 00 86 25           4671 	.dw	0,(Smain$main$523)
      000644 00 02                 4672 	.dw	2
      000646 78                    4673 	.db	120
      000647 31                    4674 	.sleb128	49
      000648 00 00 86 1A           4675 	.dw	0,(Smain$main$517)
      00064C 00 00 86 23           4676 	.dw	0,(Smain$main$522)
      000650 00 02                 4677 	.dw	2
      000652 78                    4678 	.db	120
      000653 30                    4679 	.sleb128	48
      000654 00 00 86 16           4680 	.dw	0,(Smain$main$516)
      000658 00 00 86 1A           4681 	.dw	0,(Smain$main$517)
      00065C 00 02                 4682 	.dw	2
      00065E 78                    4683 	.db	120
      00065F 32                    4684 	.sleb128	50
      000660 00 00 86 13           4685 	.dw	0,(Smain$main$514)
      000664 00 00 86 16           4686 	.dw	0,(Smain$main$516)
      000668 00 02                 4687 	.dw	2
      00066A 78                    4688 	.db	120
      00066B 30                    4689 	.sleb128	48
      00066C 00 00 86 0E           4690 	.dw	0,(Smain$main$513)
      000670 00 00 86 13           4691 	.dw	0,(Smain$main$514)
      000674 00 02                 4692 	.dw	2
      000676 78                    4693 	.db	120
      000677 34                    4694 	.sleb128	52
      000678 00 00 86 09           4695 	.dw	0,(Smain$main$512)
      00067C 00 00 86 0E           4696 	.dw	0,(Smain$main$513)
      000680 00 02                 4697 	.dw	2
      000682 78                    4698 	.db	120
      000683 32                    4699 	.sleb128	50
      000684 00 00 86 07           4700 	.dw	0,(Smain$main$511)
      000688 00 00 86 09           4701 	.dw	0,(Smain$main$512)
      00068C 00 02                 4702 	.dw	2
      00068E 78                    4703 	.db	120
      00068F 31                    4704 	.sleb128	49
      000690 00 00 86 05           4705 	.dw	0,(Smain$main$509)
      000694 00 00 86 07           4706 	.dw	0,(Smain$main$511)
      000698 00 02                 4707 	.dw	2
      00069A 78                    4708 	.db	120
      00069B 30                    4709 	.sleb128	48
      00069C 00 00 86 01           4710 	.dw	0,(Smain$main$508)
      0006A0 00 00 86 05           4711 	.dw	0,(Smain$main$509)
      0006A4 00 02                 4712 	.dw	2
      0006A6 78                    4713 	.db	120
      0006A7 32                    4714 	.sleb128	50
      0006A8 00 00 85 FF           4715 	.dw	0,(Smain$main$507)
      0006AC 00 00 86 01           4716 	.dw	0,(Smain$main$508)
      0006B0 00 02                 4717 	.dw	2
      0006B2 78                    4718 	.db	120
      0006B3 31                    4719 	.sleb128	49
      0006B4 00 00 85 FD           4720 	.dw	0,(Smain$main$505)
      0006B8 00 00 85 FF           4721 	.dw	0,(Smain$main$507)
      0006BC 00 02                 4722 	.dw	2
      0006BE 78                    4723 	.db	120
      0006BF 30                    4724 	.sleb128	48
      0006C0 00 00 85 F9           4725 	.dw	0,(Smain$main$504)
      0006C4 00 00 85 FD           4726 	.dw	0,(Smain$main$505)
      0006C8 00 02                 4727 	.dw	2
      0006CA 78                    4728 	.db	120
      0006CB 32                    4729 	.sleb128	50
      0006CC 00 00 85 F6           4730 	.dw	0,(Smain$main$502)
      0006D0 00 00 85 F9           4731 	.dw	0,(Smain$main$504)
      0006D4 00 02                 4732 	.dw	2
      0006D6 78                    4733 	.db	120
      0006D7 30                    4734 	.sleb128	48
      0006D8 00 00 85 F1           4735 	.dw	0,(Smain$main$501)
      0006DC 00 00 85 F6           4736 	.dw	0,(Smain$main$502)
      0006E0 00 02                 4737 	.dw	2
      0006E2 78                    4738 	.db	120
      0006E3 34                    4739 	.sleb128	52
      0006E4 00 00 85 EC           4740 	.dw	0,(Smain$main$500)
      0006E8 00 00 85 F1           4741 	.dw	0,(Smain$main$501)
      0006EC 00 02                 4742 	.dw	2
      0006EE 78                    4743 	.db	120
      0006EF 32                    4744 	.sleb128	50
      0006F0 00 00 85 EA           4745 	.dw	0,(Smain$main$499)
      0006F4 00 00 85 EC           4746 	.dw	0,(Smain$main$500)
      0006F8 00 02                 4747 	.dw	2
      0006FA 78                    4748 	.db	120
      0006FB 31                    4749 	.sleb128	49
      0006FC 00 00 85 E8           4750 	.dw	0,(Smain$main$497)
      000700 00 00 85 EA           4751 	.dw	0,(Smain$main$499)
      000704 00 02                 4752 	.dw	2
      000706 78                    4753 	.db	120
      000707 30                    4754 	.sleb128	48
      000708 00 00 85 E4           4755 	.dw	0,(Smain$main$496)
      00070C 00 00 85 E8           4756 	.dw	0,(Smain$main$497)
      000710 00 02                 4757 	.dw	2
      000712 78                    4758 	.db	120
      000713 32                    4759 	.sleb128	50
      000714 00 00 85 E2           4760 	.dw	0,(Smain$main$495)
      000718 00 00 85 E4           4761 	.dw	0,(Smain$main$496)
      00071C 00 02                 4762 	.dw	2
      00071E 78                    4763 	.db	120
      00071F 31                    4764 	.sleb128	49
      000720 00 00 85 D9           4765 	.dw	0,(Smain$main$490)
      000724 00 00 85 E2           4766 	.dw	0,(Smain$main$495)
      000728 00 02                 4767 	.dw	2
      00072A 78                    4768 	.db	120
      00072B 30                    4769 	.sleb128	48
      00072C 00 00 85 D5           4770 	.dw	0,(Smain$main$489)
      000730 00 00 85 D9           4771 	.dw	0,(Smain$main$490)
      000734 00 02                 4772 	.dw	2
      000736 78                    4773 	.db	120
      000737 32                    4774 	.sleb128	50
      000738 00 00 85 D2           4775 	.dw	0,(Smain$main$487)
      00073C 00 00 85 D5           4776 	.dw	0,(Smain$main$489)
      000740 00 02                 4777 	.dw	2
      000742 78                    4778 	.db	120
      000743 30                    4779 	.sleb128	48
      000744 00 00 85 CD           4780 	.dw	0,(Smain$main$486)
      000748 00 00 85 D2           4781 	.dw	0,(Smain$main$487)
      00074C 00 02                 4782 	.dw	2
      00074E 78                    4783 	.db	120
      00074F 36                    4784 	.sleb128	54
      000750 00 00 85 C8           4785 	.dw	0,(Smain$main$485)
      000754 00 00 85 CD           4786 	.dw	0,(Smain$main$486)
      000758 00 02                 4787 	.dw	2
      00075A 78                    4788 	.db	120
      00075B 34                    4789 	.sleb128	52
      00075C 00 00 85 C6           4790 	.dw	0,(Smain$main$484)
      000760 00 00 85 C8           4791 	.dw	0,(Smain$main$485)
      000764 00 02                 4792 	.dw	2
      000766 78                    4793 	.db	120
      000767 33                    4794 	.sleb128	51
      000768 00 00 85 C4           4795 	.dw	0,(Smain$main$483)
      00076C 00 00 85 C6           4796 	.dw	0,(Smain$main$484)
      000770 00 02                 4797 	.dw	2
      000772 78                    4798 	.db	120
      000773 32                    4799 	.sleb128	50
      000774 00 00 85 C1           4800 	.dw	0,(Smain$main$481)
      000778 00 00 85 C4           4801 	.dw	0,(Smain$main$483)
      00077C 00 02                 4802 	.dw	2
      00077E 78                    4803 	.db	120
      00077F 30                    4804 	.sleb128	48
      000780 00 00 85 BD           4805 	.dw	0,(Smain$main$480)
      000784 00 00 85 C1           4806 	.dw	0,(Smain$main$481)
      000788 00 02                 4807 	.dw	2
      00078A 78                    4808 	.db	120
      00078B 32                    4809 	.sleb128	50
      00078C 00 00 85 BB           4810 	.dw	0,(Smain$main$479)
      000790 00 00 85 BD           4811 	.dw	0,(Smain$main$480)
      000794 00 02                 4812 	.dw	2
      000796 78                    4813 	.db	120
      000797 31                    4814 	.sleb128	49
      000798 00 00 85 B9           4815 	.dw	0,(Smain$main$477)
      00079C 00 00 85 BB           4816 	.dw	0,(Smain$main$479)
      0007A0 00 02                 4817 	.dw	2
      0007A2 78                    4818 	.db	120
      0007A3 30                    4819 	.sleb128	48
      0007A4 00 00 85 B5           4820 	.dw	0,(Smain$main$476)
      0007A8 00 00 85 B9           4821 	.dw	0,(Smain$main$477)
      0007AC 00 02                 4822 	.dw	2
      0007AE 78                    4823 	.db	120
      0007AF 32                    4824 	.sleb128	50
      0007B0 00 00 85 B2           4825 	.dw	0,(Smain$main$474)
      0007B4 00 00 85 B5           4826 	.dw	0,(Smain$main$476)
      0007B8 00 02                 4827 	.dw	2
      0007BA 78                    4828 	.db	120
      0007BB 30                    4829 	.sleb128	48
      0007BC 00 00 85 AD           4830 	.dw	0,(Smain$main$473)
      0007C0 00 00 85 B2           4831 	.dw	0,(Smain$main$474)
      0007C4 00 02                 4832 	.dw	2
      0007C6 78                    4833 	.db	120
      0007C7 34                    4834 	.sleb128	52
      0007C8 00 00 85 A8           4835 	.dw	0,(Smain$main$472)
      0007CC 00 00 85 AD           4836 	.dw	0,(Smain$main$473)
      0007D0 00 02                 4837 	.dw	2
      0007D2 78                    4838 	.db	120
      0007D3 32                    4839 	.sleb128	50
      0007D4 00 00 85 A6           4840 	.dw	0,(Smain$main$471)
      0007D8 00 00 85 A8           4841 	.dw	0,(Smain$main$472)
      0007DC 00 02                 4842 	.dw	2
      0007DE 78                    4843 	.db	120
      0007DF 31                    4844 	.sleb128	49
      0007E0 00 00 85 A4           4845 	.dw	0,(Smain$main$469)
      0007E4 00 00 85 A6           4846 	.dw	0,(Smain$main$471)
      0007E8 00 02                 4847 	.dw	2
      0007EA 78                    4848 	.db	120
      0007EB 30                    4849 	.sleb128	48
      0007EC 00 00 85 A0           4850 	.dw	0,(Smain$main$468)
      0007F0 00 00 85 A4           4851 	.dw	0,(Smain$main$469)
      0007F4 00 02                 4852 	.dw	2
      0007F6 78                    4853 	.db	120
      0007F7 32                    4854 	.sleb128	50
      0007F8 00 00 85 9E           4855 	.dw	0,(Smain$main$467)
      0007FC 00 00 85 A0           4856 	.dw	0,(Smain$main$468)
      000800 00 02                 4857 	.dw	2
      000802 78                    4858 	.db	120
      000803 31                    4859 	.sleb128	49
      000804 00 00 85 97           4860 	.dw	0,(Smain$main$464)
      000808 00 00 85 9E           4861 	.dw	0,(Smain$main$467)
      00080C 00 02                 4862 	.dw	2
      00080E 78                    4863 	.db	120
      00080F 30                    4864 	.sleb128	48
      000810 00 00 85 93           4865 	.dw	0,(Smain$main$463)
      000814 00 00 85 97           4866 	.dw	0,(Smain$main$464)
      000818 00 02                 4867 	.dw	2
      00081A 78                    4868 	.db	120
      00081B 32                    4869 	.sleb128	50
      00081C 00 00 85 90           4870 	.dw	0,(Smain$main$461)
      000820 00 00 85 93           4871 	.dw	0,(Smain$main$463)
      000824 00 02                 4872 	.dw	2
      000826 78                    4873 	.db	120
      000827 30                    4874 	.sleb128	48
      000828 00 00 85 8B           4875 	.dw	0,(Smain$main$460)
      00082C 00 00 85 90           4876 	.dw	0,(Smain$main$461)
      000830 00 02                 4877 	.dw	2
      000832 78                    4878 	.db	120
      000833 34                    4879 	.sleb128	52
      000834 00 00 85 86           4880 	.dw	0,(Smain$main$459)
      000838 00 00 85 8B           4881 	.dw	0,(Smain$main$460)
      00083C 00 02                 4882 	.dw	2
      00083E 78                    4883 	.db	120
      00083F 32                    4884 	.sleb128	50
      000840 00 00 85 84           4885 	.dw	0,(Smain$main$458)
      000844 00 00 85 86           4886 	.dw	0,(Smain$main$459)
      000848 00 02                 4887 	.dw	2
      00084A 78                    4888 	.db	120
      00084B 31                    4889 	.sleb128	49
      00084C 00 00 85 82           4890 	.dw	0,(Smain$main$456)
      000850 00 00 85 84           4891 	.dw	0,(Smain$main$458)
      000854 00 02                 4892 	.dw	2
      000856 78                    4893 	.db	120
      000857 30                    4894 	.sleb128	48
      000858 00 00 85 7E           4895 	.dw	0,(Smain$main$455)
      00085C 00 00 85 82           4896 	.dw	0,(Smain$main$456)
      000860 00 02                 4897 	.dw	2
      000862 78                    4898 	.db	120
      000863 32                    4899 	.sleb128	50
      000864 00 00 85 7C           4900 	.dw	0,(Smain$main$454)
      000868 00 00 85 7E           4901 	.dw	0,(Smain$main$455)
      00086C 00 02                 4902 	.dw	2
      00086E 78                    4903 	.db	120
      00086F 31                    4904 	.sleb128	49
      000870 00 00 85 6C           4905 	.dw	0,(Smain$main$447)
      000874 00 00 85 7C           4906 	.dw	0,(Smain$main$454)
      000878 00 02                 4907 	.dw	2
      00087A 78                    4908 	.db	120
      00087B 30                    4909 	.sleb128	48
      00087C 00 00 85 68           4910 	.dw	0,(Smain$main$446)
      000880 00 00 85 6C           4911 	.dw	0,(Smain$main$447)
      000884 00 02                 4912 	.dw	2
      000886 78                    4913 	.db	120
      000887 32                    4914 	.sleb128	50
      000888 00 00 85 65           4915 	.dw	0,(Smain$main$444)
      00088C 00 00 85 68           4916 	.dw	0,(Smain$main$446)
      000890 00 02                 4917 	.dw	2
      000892 78                    4918 	.db	120
      000893 30                    4919 	.sleb128	48
      000894 00 00 85 60           4920 	.dw	0,(Smain$main$443)
      000898 00 00 85 65           4921 	.dw	0,(Smain$main$444)
      00089C 00 02                 4922 	.dw	2
      00089E 78                    4923 	.db	120
      00089F 36                    4924 	.sleb128	54
      0008A0 00 00 85 5B           4925 	.dw	0,(Smain$main$442)
      0008A4 00 00 85 60           4926 	.dw	0,(Smain$main$443)
      0008A8 00 02                 4927 	.dw	2
      0008AA 78                    4928 	.db	120
      0008AB 34                    4929 	.sleb128	52
      0008AC 00 00 85 59           4930 	.dw	0,(Smain$main$441)
      0008B0 00 00 85 5B           4931 	.dw	0,(Smain$main$442)
      0008B4 00 02                 4932 	.dw	2
      0008B6 78                    4933 	.db	120
      0008B7 33                    4934 	.sleb128	51
      0008B8 00 00 85 57           4935 	.dw	0,(Smain$main$440)
      0008BC 00 00 85 59           4936 	.dw	0,(Smain$main$441)
      0008C0 00 02                 4937 	.dw	2
      0008C2 78                    4938 	.db	120
      0008C3 32                    4939 	.sleb128	50
      0008C4 00 00 85 54           4940 	.dw	0,(Smain$main$438)
      0008C8 00 00 85 57           4941 	.dw	0,(Smain$main$440)
      0008CC 00 02                 4942 	.dw	2
      0008CE 78                    4943 	.db	120
      0008CF 30                    4944 	.sleb128	48
      0008D0 00 00 85 50           4945 	.dw	0,(Smain$main$437)
      0008D4 00 00 85 54           4946 	.dw	0,(Smain$main$438)
      0008D8 00 02                 4947 	.dw	2
      0008DA 78                    4948 	.db	120
      0008DB 32                    4949 	.sleb128	50
      0008DC 00 00 85 4E           4950 	.dw	0,(Smain$main$436)
      0008E0 00 00 85 50           4951 	.dw	0,(Smain$main$437)
      0008E4 00 02                 4952 	.dw	2
      0008E6 78                    4953 	.db	120
      0008E7 31                    4954 	.sleb128	49
      0008E8 00 00 85 4C           4955 	.dw	0,(Smain$main$434)
      0008EC 00 00 85 4E           4956 	.dw	0,(Smain$main$436)
      0008F0 00 02                 4957 	.dw	2
      0008F2 78                    4958 	.db	120
      0008F3 30                    4959 	.sleb128	48
      0008F4 00 00 85 48           4960 	.dw	0,(Smain$main$433)
      0008F8 00 00 85 4C           4961 	.dw	0,(Smain$main$434)
      0008FC 00 02                 4962 	.dw	2
      0008FE 78                    4963 	.db	120
      0008FF 32                    4964 	.sleb128	50
      000900 00 00 85 45           4965 	.dw	0,(Smain$main$431)
      000904 00 00 85 48           4966 	.dw	0,(Smain$main$433)
      000908 00 02                 4967 	.dw	2
      00090A 78                    4968 	.db	120
      00090B 30                    4969 	.sleb128	48
      00090C 00 00 85 40           4970 	.dw	0,(Smain$main$430)
      000910 00 00 85 45           4971 	.dw	0,(Smain$main$431)
      000914 00 02                 4972 	.dw	2
      000916 78                    4973 	.db	120
      000917 34                    4974 	.sleb128	52
      000918 00 00 85 3B           4975 	.dw	0,(Smain$main$429)
      00091C 00 00 85 40           4976 	.dw	0,(Smain$main$430)
      000920 00 02                 4977 	.dw	2
      000922 78                    4978 	.db	120
      000923 32                    4979 	.sleb128	50
      000924 00 00 85 39           4980 	.dw	0,(Smain$main$428)
      000928 00 00 85 3B           4981 	.dw	0,(Smain$main$429)
      00092C 00 02                 4982 	.dw	2
      00092E 78                    4983 	.db	120
      00092F 31                    4984 	.sleb128	49
      000930 00 00 85 37           4985 	.dw	0,(Smain$main$426)
      000934 00 00 85 39           4986 	.dw	0,(Smain$main$428)
      000938 00 02                 4987 	.dw	2
      00093A 78                    4988 	.db	120
      00093B 30                    4989 	.sleb128	48
      00093C 00 00 85 33           4990 	.dw	0,(Smain$main$425)
      000940 00 00 85 37           4991 	.dw	0,(Smain$main$426)
      000944 00 02                 4992 	.dw	2
      000946 78                    4993 	.db	120
      000947 32                    4994 	.sleb128	50
      000948 00 00 85 31           4995 	.dw	0,(Smain$main$424)
      00094C 00 00 85 33           4996 	.dw	0,(Smain$main$425)
      000950 00 02                 4997 	.dw	2
      000952 78                    4998 	.db	120
      000953 31                    4999 	.sleb128	49
      000954 00 00 85 2A           5000 	.dw	0,(Smain$main$421)
      000958 00 00 85 31           5001 	.dw	0,(Smain$main$424)
      00095C 00 02                 5002 	.dw	2
      00095E 78                    5003 	.db	120
      00095F 30                    5004 	.sleb128	48
      000960 00 00 85 26           5005 	.dw	0,(Smain$main$420)
      000964 00 00 85 2A           5006 	.dw	0,(Smain$main$421)
      000968 00 02                 5007 	.dw	2
      00096A 78                    5008 	.db	120
      00096B 32                    5009 	.sleb128	50
      00096C 00 00 85 23           5010 	.dw	0,(Smain$main$418)
      000970 00 00 85 26           5011 	.dw	0,(Smain$main$420)
      000974 00 02                 5012 	.dw	2
      000976 78                    5013 	.db	120
      000977 30                    5014 	.sleb128	48
      000978 00 00 85 1E           5015 	.dw	0,(Smain$main$417)
      00097C 00 00 85 23           5016 	.dw	0,(Smain$main$418)
      000980 00 02                 5017 	.dw	2
      000982 78                    5018 	.db	120
      000983 34                    5019 	.sleb128	52
      000984 00 00 85 19           5020 	.dw	0,(Smain$main$416)
      000988 00 00 85 1E           5021 	.dw	0,(Smain$main$417)
      00098C 00 02                 5022 	.dw	2
      00098E 78                    5023 	.db	120
      00098F 32                    5024 	.sleb128	50
      000990 00 00 85 17           5025 	.dw	0,(Smain$main$415)
      000994 00 00 85 19           5026 	.dw	0,(Smain$main$416)
      000998 00 02                 5027 	.dw	2
      00099A 78                    5028 	.db	120
      00099B 31                    5029 	.sleb128	49
      00099C 00 00 85 15           5030 	.dw	0,(Smain$main$413)
      0009A0 00 00 85 17           5031 	.dw	0,(Smain$main$415)
      0009A4 00 02                 5032 	.dw	2
      0009A6 78                    5033 	.db	120
      0009A7 30                    5034 	.sleb128	48
      0009A8 00 00 85 11           5035 	.dw	0,(Smain$main$412)
      0009AC 00 00 85 15           5036 	.dw	0,(Smain$main$413)
      0009B0 00 02                 5037 	.dw	2
      0009B2 78                    5038 	.db	120
      0009B3 32                    5039 	.sleb128	50
      0009B4 00 00 85 0F           5040 	.dw	0,(Smain$main$411)
      0009B8 00 00 85 11           5041 	.dw	0,(Smain$main$412)
      0009BC 00 02                 5042 	.dw	2
      0009BE 78                    5043 	.db	120
      0009BF 31                    5044 	.sleb128	49
      0009C0 00 00 85 06           5045 	.dw	0,(Smain$main$406)
      0009C4 00 00 85 0F           5046 	.dw	0,(Smain$main$411)
      0009C8 00 02                 5047 	.dw	2
      0009CA 78                    5048 	.db	120
      0009CB 30                    5049 	.sleb128	48
      0009CC 00 00 85 01           5050 	.dw	0,(Smain$main$405)
      0009D0 00 00 85 06           5051 	.dw	0,(Smain$main$406)
      0009D4 00 02                 5052 	.dw	2
      0009D6 78                    5053 	.db	120
      0009D7 33                    5054 	.sleb128	51
      0009D8 00 00 84 FF           5055 	.dw	0,(Smain$main$404)
      0009DC 00 00 85 01           5056 	.dw	0,(Smain$main$405)
      0009E0 00 02                 5057 	.dw	2
      0009E2 78                    5058 	.db	120
      0009E3 32                    5059 	.sleb128	50
      0009E4 00 00 84 FD           5060 	.dw	0,(Smain$main$403)
      0009E8 00 00 84 FF           5061 	.dw	0,(Smain$main$404)
      0009EC 00 02                 5062 	.dw	2
      0009EE 78                    5063 	.db	120
      0009EF 31                    5064 	.sleb128	49
      0009F0 00 00 84 FB           5065 	.dw	0,(Smain$main$401)
      0009F4 00 00 84 FD           5066 	.dw	0,(Smain$main$403)
      0009F8 00 02                 5067 	.dw	2
      0009FA 78                    5068 	.db	120
      0009FB 30                    5069 	.sleb128	48
      0009FC 00 00 84 F7           5070 	.dw	0,(Smain$main$400)
      000A00 00 00 84 FB           5071 	.dw	0,(Smain$main$401)
      000A04 00 02                 5072 	.dw	2
      000A06 78                    5073 	.db	120
      000A07 32                    5074 	.sleb128	50
      000A08 00 00 84 F5           5075 	.dw	0,(Smain$main$399)
      000A0C 00 00 84 F7           5076 	.dw	0,(Smain$main$400)
      000A10 00 02                 5077 	.dw	2
      000A12 78                    5078 	.db	120
      000A13 31                    5079 	.sleb128	49
      000A14 00 00 84 F3           5080 	.dw	0,(Smain$main$397)
      000A18 00 00 84 F5           5081 	.dw	0,(Smain$main$399)
      000A1C 00 02                 5082 	.dw	2
      000A1E 78                    5083 	.db	120
      000A1F 30                    5084 	.sleb128	48
      000A20 00 00 84 EE           5085 	.dw	0,(Smain$main$396)
      000A24 00 00 84 F3           5086 	.dw	0,(Smain$main$397)
      000A28 00 02                 5087 	.dw	2
      000A2A 78                    5088 	.db	120
      000A2B 33                    5089 	.sleb128	51
      000A2C 00 00 84 EC           5090 	.dw	0,(Smain$main$395)
      000A30 00 00 84 EE           5091 	.dw	0,(Smain$main$396)
      000A34 00 02                 5092 	.dw	2
      000A36 78                    5093 	.db	120
      000A37 32                    5094 	.sleb128	50
      000A38 00 00 84 EA           5095 	.dw	0,(Smain$main$394)
      000A3C 00 00 84 EC           5096 	.dw	0,(Smain$main$395)
      000A40 00 02                 5097 	.dw	2
      000A42 78                    5098 	.db	120
      000A43 31                    5099 	.sleb128	49
      000A44 00 00 84 E8           5100 	.dw	0,(Smain$main$392)
      000A48 00 00 84 EA           5101 	.dw	0,(Smain$main$394)
      000A4C 00 02                 5102 	.dw	2
      000A4E 78                    5103 	.db	120
      000A4F 30                    5104 	.sleb128	48
      000A50 00 00 84 E4           5105 	.dw	0,(Smain$main$391)
      000A54 00 00 84 E8           5106 	.dw	0,(Smain$main$392)
      000A58 00 02                 5107 	.dw	2
      000A5A 78                    5108 	.db	120
      000A5B 32                    5109 	.sleb128	50
      000A5C 00 00 84 E1           5110 	.dw	0,(Smain$main$389)
      000A60 00 00 84 E4           5111 	.dw	0,(Smain$main$391)
      000A64 00 02                 5112 	.dw	2
      000A66 78                    5113 	.db	120
      000A67 30                    5114 	.sleb128	48
      000A68 00 00 84 DC           5115 	.dw	0,(Smain$main$388)
      000A6C 00 00 84 E1           5116 	.dw	0,(Smain$main$389)
      000A70 00 02                 5117 	.dw	2
      000A72 78                    5118 	.db	120
      000A73 36                    5119 	.sleb128	54
      000A74 00 00 84 D7           5120 	.dw	0,(Smain$main$387)
      000A78 00 00 84 DC           5121 	.dw	0,(Smain$main$388)
      000A7C 00 02                 5122 	.dw	2
      000A7E 78                    5123 	.db	120
      000A7F 34                    5124 	.sleb128	52
      000A80 00 00 84 D5           5125 	.dw	0,(Smain$main$386)
      000A84 00 00 84 D7           5126 	.dw	0,(Smain$main$387)
      000A88 00 02                 5127 	.dw	2
      000A8A 78                    5128 	.db	120
      000A8B 33                    5129 	.sleb128	51
      000A8C 00 00 84 D3           5130 	.dw	0,(Smain$main$385)
      000A90 00 00 84 D5           5131 	.dw	0,(Smain$main$386)
      000A94 00 02                 5132 	.dw	2
      000A96 78                    5133 	.db	120
      000A97 32                    5134 	.sleb128	50
      000A98 00 00 84 D0           5135 	.dw	0,(Smain$main$383)
      000A9C 00 00 84 D3           5136 	.dw	0,(Smain$main$385)
      000AA0 00 02                 5137 	.dw	2
      000AA2 78                    5138 	.db	120
      000AA3 30                    5139 	.sleb128	48
      000AA4 00 00 84 CC           5140 	.dw	0,(Smain$main$382)
      000AA8 00 00 84 D0           5141 	.dw	0,(Smain$main$383)
      000AAC 00 02                 5142 	.dw	2
      000AAE 78                    5143 	.db	120
      000AAF 32                    5144 	.sleb128	50
      000AB0 00 00 84 CA           5145 	.dw	0,(Smain$main$381)
      000AB4 00 00 84 CC           5146 	.dw	0,(Smain$main$382)
      000AB8 00 02                 5147 	.dw	2
      000ABA 78                    5148 	.db	120
      000ABB 31                    5149 	.sleb128	49
      000ABC 00 00 84 C3           5150 	.dw	0,(Smain$main$378)
      000AC0 00 00 84 CA           5151 	.dw	0,(Smain$main$381)
      000AC4 00 02                 5152 	.dw	2
      000AC6 78                    5153 	.db	120
      000AC7 30                    5154 	.sleb128	48
      000AC8 00 00 84 BF           5155 	.dw	0,(Smain$main$377)
      000ACC 00 00 84 C3           5156 	.dw	0,(Smain$main$378)
      000AD0 00 02                 5157 	.dw	2
      000AD2 78                    5158 	.db	120
      000AD3 32                    5159 	.sleb128	50
      000AD4 00 00 84 BC           5160 	.dw	0,(Smain$main$375)
      000AD8 00 00 84 BF           5161 	.dw	0,(Smain$main$377)
      000ADC 00 02                 5162 	.dw	2
      000ADE 78                    5163 	.db	120
      000ADF 30                    5164 	.sleb128	48
      000AE0 00 00 84 B7           5165 	.dw	0,(Smain$main$374)
      000AE4 00 00 84 BC           5166 	.dw	0,(Smain$main$375)
      000AE8 00 02                 5167 	.dw	2
      000AEA 78                    5168 	.db	120
      000AEB 34                    5169 	.sleb128	52
      000AEC 00 00 84 B2           5170 	.dw	0,(Smain$main$373)
      000AF0 00 00 84 B7           5171 	.dw	0,(Smain$main$374)
      000AF4 00 02                 5172 	.dw	2
      000AF6 78                    5173 	.db	120
      000AF7 32                    5174 	.sleb128	50
      000AF8 00 00 84 B0           5175 	.dw	0,(Smain$main$372)
      000AFC 00 00 84 B2           5176 	.dw	0,(Smain$main$373)
      000B00 00 02                 5177 	.dw	2
      000B02 78                    5178 	.db	120
      000B03 31                    5179 	.sleb128	49
      000B04 00 00 84 AE           5180 	.dw	0,(Smain$main$370)
      000B08 00 00 84 B0           5181 	.dw	0,(Smain$main$372)
      000B0C 00 02                 5182 	.dw	2
      000B0E 78                    5183 	.db	120
      000B0F 30                    5184 	.sleb128	48
      000B10 00 00 84 AA           5185 	.dw	0,(Smain$main$369)
      000B14 00 00 84 AE           5186 	.dw	0,(Smain$main$370)
      000B18 00 02                 5187 	.dw	2
      000B1A 78                    5188 	.db	120
      000B1B 32                    5189 	.sleb128	50
      000B1C 00 00 84 A8           5190 	.dw	0,(Smain$main$368)
      000B20 00 00 84 AA           5191 	.dw	0,(Smain$main$369)
      000B24 00 02                 5192 	.dw	2
      000B26 78                    5193 	.db	120
      000B27 31                    5194 	.sleb128	49
      000B28 00 00 84 A6           5195 	.dw	0,(Smain$main$366)
      000B2C 00 00 84 A8           5196 	.dw	0,(Smain$main$368)
      000B30 00 02                 5197 	.dw	2
      000B32 78                    5198 	.db	120
      000B33 30                    5199 	.sleb128	48
      000B34 00 00 84 A2           5200 	.dw	0,(Smain$main$365)
      000B38 00 00 84 A6           5201 	.dw	0,(Smain$main$366)
      000B3C 00 02                 5202 	.dw	2
      000B3E 78                    5203 	.db	120
      000B3F 32                    5204 	.sleb128	50
      000B40 00 00 84 9F           5205 	.dw	0,(Smain$main$363)
      000B44 00 00 84 A2           5206 	.dw	0,(Smain$main$365)
      000B48 00 02                 5207 	.dw	2
      000B4A 78                    5208 	.db	120
      000B4B 30                    5209 	.sleb128	48
      000B4C 00 00 84 9A           5210 	.dw	0,(Smain$main$362)
      000B50 00 00 84 9F           5211 	.dw	0,(Smain$main$363)
      000B54 00 02                 5212 	.dw	2
      000B56 78                    5213 	.db	120
      000B57 34                    5214 	.sleb128	52
      000B58 00 00 84 95           5215 	.dw	0,(Smain$main$361)
      000B5C 00 00 84 9A           5216 	.dw	0,(Smain$main$362)
      000B60 00 02                 5217 	.dw	2
      000B62 78                    5218 	.db	120
      000B63 32                    5219 	.sleb128	50
      000B64 00 00 84 93           5220 	.dw	0,(Smain$main$360)
      000B68 00 00 84 95           5221 	.dw	0,(Smain$main$361)
      000B6C 00 02                 5222 	.dw	2
      000B6E 78                    5223 	.db	120
      000B6F 31                    5224 	.sleb128	49
      000B70 00 00 84 91           5225 	.dw	0,(Smain$main$358)
      000B74 00 00 84 93           5226 	.dw	0,(Smain$main$360)
      000B78 00 02                 5227 	.dw	2
      000B7A 78                    5228 	.db	120
      000B7B 30                    5229 	.sleb128	48
      000B7C 00 00 84 8D           5230 	.dw	0,(Smain$main$357)
      000B80 00 00 84 91           5231 	.dw	0,(Smain$main$358)
      000B84 00 02                 5232 	.dw	2
      000B86 78                    5233 	.db	120
      000B87 32                    5234 	.sleb128	50
      000B88 00 00 84 8B           5235 	.dw	0,(Smain$main$356)
      000B8C 00 00 84 8D           5236 	.dw	0,(Smain$main$357)
      000B90 00 02                 5237 	.dw	2
      000B92 78                    5238 	.db	120
      000B93 31                    5239 	.sleb128	49
      000B94 00 00 84 82           5240 	.dw	0,(Smain$main$351)
      000B98 00 00 84 8B           5241 	.dw	0,(Smain$main$356)
      000B9C 00 02                 5242 	.dw	2
      000B9E 78                    5243 	.db	120
      000B9F 30                    5244 	.sleb128	48
      000BA0 00 00 84 7E           5245 	.dw	0,(Smain$main$350)
      000BA4 00 00 84 82           5246 	.dw	0,(Smain$main$351)
      000BA8 00 02                 5247 	.dw	2
      000BAA 78                    5248 	.db	120
      000BAB 32                    5249 	.sleb128	50
      000BAC 00 00 84 7B           5250 	.dw	0,(Smain$main$348)
      000BB0 00 00 84 7E           5251 	.dw	0,(Smain$main$350)
      000BB4 00 02                 5252 	.dw	2
      000BB6 78                    5253 	.db	120
      000BB7 30                    5254 	.sleb128	48
      000BB8 00 00 84 76           5255 	.dw	0,(Smain$main$347)
      000BBC 00 00 84 7B           5256 	.dw	0,(Smain$main$348)
      000BC0 00 02                 5257 	.dw	2
      000BC2 78                    5258 	.db	120
      000BC3 34                    5259 	.sleb128	52
      000BC4 00 00 84 71           5260 	.dw	0,(Smain$main$346)
      000BC8 00 00 84 76           5261 	.dw	0,(Smain$main$347)
      000BCC 00 02                 5262 	.dw	2
      000BCE 78                    5263 	.db	120
      000BCF 32                    5264 	.sleb128	50
      000BD0 00 00 84 6F           5265 	.dw	0,(Smain$main$345)
      000BD4 00 00 84 71           5266 	.dw	0,(Smain$main$346)
      000BD8 00 02                 5267 	.dw	2
      000BDA 78                    5268 	.db	120
      000BDB 31                    5269 	.sleb128	49
      000BDC 00 00 84 6D           5270 	.dw	0,(Smain$main$343)
      000BE0 00 00 84 6F           5271 	.dw	0,(Smain$main$345)
      000BE4 00 02                 5272 	.dw	2
      000BE6 78                    5273 	.db	120
      000BE7 30                    5274 	.sleb128	48
      000BE8 00 00 84 69           5275 	.dw	0,(Smain$main$342)
      000BEC 00 00 84 6D           5276 	.dw	0,(Smain$main$343)
      000BF0 00 02                 5277 	.dw	2
      000BF2 78                    5278 	.db	120
      000BF3 32                    5279 	.sleb128	50
      000BF4 00 00 84 67           5280 	.dw	0,(Smain$main$341)
      000BF8 00 00 84 69           5281 	.dw	0,(Smain$main$342)
      000BFC 00 02                 5282 	.dw	2
      000BFE 78                    5283 	.db	120
      000BFF 31                    5284 	.sleb128	49
      000C00 00 00 84 65           5285 	.dw	0,(Smain$main$339)
      000C04 00 00 84 67           5286 	.dw	0,(Smain$main$341)
      000C08 00 02                 5287 	.dw	2
      000C0A 78                    5288 	.db	120
      000C0B 30                    5289 	.sleb128	48
      000C0C 00 00 84 61           5290 	.dw	0,(Smain$main$338)
      000C10 00 00 84 65           5291 	.dw	0,(Smain$main$339)
      000C14 00 02                 5292 	.dw	2
      000C16 78                    5293 	.db	120
      000C17 32                    5294 	.sleb128	50
      000C18 00 00 84 5E           5295 	.dw	0,(Smain$main$336)
      000C1C 00 00 84 61           5296 	.dw	0,(Smain$main$338)
      000C20 00 02                 5297 	.dw	2
      000C22 78                    5298 	.db	120
      000C23 30                    5299 	.sleb128	48
      000C24 00 00 84 59           5300 	.dw	0,(Smain$main$335)
      000C28 00 00 84 5E           5301 	.dw	0,(Smain$main$336)
      000C2C 00 02                 5302 	.dw	2
      000C2E 78                    5303 	.db	120
      000C2F 34                    5304 	.sleb128	52
      000C30 00 00 84 54           5305 	.dw	0,(Smain$main$334)
      000C34 00 00 84 59           5306 	.dw	0,(Smain$main$335)
      000C38 00 02                 5307 	.dw	2
      000C3A 78                    5308 	.db	120
      000C3B 32                    5309 	.sleb128	50
      000C3C 00 00 84 52           5310 	.dw	0,(Smain$main$333)
      000C40 00 00 84 54           5311 	.dw	0,(Smain$main$334)
      000C44 00 02                 5312 	.dw	2
      000C46 78                    5313 	.db	120
      000C47 31                    5314 	.sleb128	49
      000C48 00 00 84 50           5315 	.dw	0,(Smain$main$331)
      000C4C 00 00 84 52           5316 	.dw	0,(Smain$main$333)
      000C50 00 02                 5317 	.dw	2
      000C52 78                    5318 	.db	120
      000C53 30                    5319 	.sleb128	48
      000C54 00 00 84 4C           5320 	.dw	0,(Smain$main$330)
      000C58 00 00 84 50           5321 	.dw	0,(Smain$main$331)
      000C5C 00 02                 5322 	.dw	2
      000C5E 78                    5323 	.db	120
      000C5F 32                    5324 	.sleb128	50
      000C60 00 00 84 4A           5325 	.dw	0,(Smain$main$329)
      000C64 00 00 84 4C           5326 	.dw	0,(Smain$main$330)
      000C68 00 02                 5327 	.dw	2
      000C6A 78                    5328 	.db	120
      000C6B 31                    5329 	.sleb128	49
      000C6C 00 00 84 3A           5330 	.dw	0,(Smain$main$323)
      000C70 00 00 84 4A           5331 	.dw	0,(Smain$main$329)
      000C74 00 02                 5332 	.dw	2
      000C76 78                    5333 	.db	120
      000C77 30                    5334 	.sleb128	48
      000C78 00 00 84 26           5335 	.dw	0,(Smain$main$321)
      000C7C 00 00 84 3A           5336 	.dw	0,(Smain$main$323)
      000C80 00 02                 5337 	.dw	2
      000C82 78                    5338 	.db	120
      000C83 30                    5339 	.sleb128	48
      000C84 00 00 84 12           5340 	.dw	0,(Smain$main$319)
      000C88 00 00 84 26           5341 	.dw	0,(Smain$main$321)
      000C8C 00 02                 5342 	.dw	2
      000C8E 78                    5343 	.db	120
      000C8F 30                    5344 	.sleb128	48
      000C90 00 00 84 00           5345 	.dw	0,(Smain$main$316)
      000C94 00 00 84 12           5346 	.dw	0,(Smain$main$319)
      000C98 00 02                 5347 	.dw	2
      000C9A 78                    5348 	.db	120
      000C9B 30                    5349 	.sleb128	48
      000C9C 00 00 83 FC           5350 	.dw	0,(Smain$main$315)
      000CA0 00 00 84 00           5351 	.dw	0,(Smain$main$316)
      000CA4 00 02                 5352 	.dw	2
      000CA6 78                    5353 	.db	120
      000CA7 32                    5354 	.sleb128	50
      000CA8 00 00 83 F9           5355 	.dw	0,(Smain$main$313)
      000CAC 00 00 83 FC           5356 	.dw	0,(Smain$main$315)
      000CB0 00 02                 5357 	.dw	2
      000CB2 78                    5358 	.db	120
      000CB3 30                    5359 	.sleb128	48
      000CB4 00 00 83 F4           5360 	.dw	0,(Smain$main$312)
      000CB8 00 00 83 F9           5361 	.dw	0,(Smain$main$313)
      000CBC 00 02                 5362 	.dw	2
      000CBE 78                    5363 	.db	120
      000CBF 36                    5364 	.sleb128	54
      000CC0 00 00 83 EF           5365 	.dw	0,(Smain$main$311)
      000CC4 00 00 83 F4           5366 	.dw	0,(Smain$main$312)
      000CC8 00 02                 5367 	.dw	2
      000CCA 78                    5368 	.db	120
      000CCB 34                    5369 	.sleb128	52
      000CCC 00 00 83 ED           5370 	.dw	0,(Smain$main$310)
      000CD0 00 00 83 EF           5371 	.dw	0,(Smain$main$311)
      000CD4 00 02                 5372 	.dw	2
      000CD6 78                    5373 	.db	120
      000CD7 33                    5374 	.sleb128	51
      000CD8 00 00 83 EB           5375 	.dw	0,(Smain$main$309)
      000CDC 00 00 83 ED           5376 	.dw	0,(Smain$main$310)
      000CE0 00 02                 5377 	.dw	2
      000CE2 78                    5378 	.db	120
      000CE3 32                    5379 	.sleb128	50
      000CE4 00 00 83 E8           5380 	.dw	0,(Smain$main$307)
      000CE8 00 00 83 EB           5381 	.dw	0,(Smain$main$309)
      000CEC 00 02                 5382 	.dw	2
      000CEE 78                    5383 	.db	120
      000CEF 30                    5384 	.sleb128	48
      000CF0 00 00 83 E4           5385 	.dw	0,(Smain$main$306)
      000CF4 00 00 83 E8           5386 	.dw	0,(Smain$main$307)
      000CF8 00 02                 5387 	.dw	2
      000CFA 78                    5388 	.db	120
      000CFB 32                    5389 	.sleb128	50
      000CFC 00 00 83 E2           5390 	.dw	0,(Smain$main$305)
      000D00 00 00 83 E4           5391 	.dw	0,(Smain$main$306)
      000D04 00 02                 5392 	.dw	2
      000D06 78                    5393 	.db	120
      000D07 31                    5394 	.sleb128	49
      000D08 00 00 83 E0           5395 	.dw	0,(Smain$main$303)
      000D0C 00 00 83 E2           5396 	.dw	0,(Smain$main$305)
      000D10 00 02                 5397 	.dw	2
      000D12 78                    5398 	.db	120
      000D13 30                    5399 	.sleb128	48
      000D14 00 00 83 DC           5400 	.dw	0,(Smain$main$302)
      000D18 00 00 83 E0           5401 	.dw	0,(Smain$main$303)
      000D1C 00 02                 5402 	.dw	2
      000D1E 78                    5403 	.db	120
      000D1F 32                    5404 	.sleb128	50
      000D20 00 00 83 D9           5405 	.dw	0,(Smain$main$300)
      000D24 00 00 83 DC           5406 	.dw	0,(Smain$main$302)
      000D28 00 02                 5407 	.dw	2
      000D2A 78                    5408 	.db	120
      000D2B 30                    5409 	.sleb128	48
      000D2C 00 00 83 D4           5410 	.dw	0,(Smain$main$299)
      000D30 00 00 83 D9           5411 	.dw	0,(Smain$main$300)
      000D34 00 02                 5412 	.dw	2
      000D36 78                    5413 	.db	120
      000D37 36                    5414 	.sleb128	54
      000D38 00 00 83 CF           5415 	.dw	0,(Smain$main$298)
      000D3C 00 00 83 D4           5416 	.dw	0,(Smain$main$299)
      000D40 00 02                 5417 	.dw	2
      000D42 78                    5418 	.db	120
      000D43 34                    5419 	.sleb128	52
      000D44 00 00 83 CD           5420 	.dw	0,(Smain$main$297)
      000D48 00 00 83 CF           5421 	.dw	0,(Smain$main$298)
      000D4C 00 02                 5422 	.dw	2
      000D4E 78                    5423 	.db	120
      000D4F 33                    5424 	.sleb128	51
      000D50 00 00 83 CB           5425 	.dw	0,(Smain$main$296)
      000D54 00 00 83 CD           5426 	.dw	0,(Smain$main$297)
      000D58 00 02                 5427 	.dw	2
      000D5A 78                    5428 	.db	120
      000D5B 32                    5429 	.sleb128	50
      000D5C 00 00 83 C8           5430 	.dw	0,(Smain$main$294)
      000D60 00 00 83 CB           5431 	.dw	0,(Smain$main$296)
      000D64 00 02                 5432 	.dw	2
      000D66 78                    5433 	.db	120
      000D67 30                    5434 	.sleb128	48
      000D68 00 00 83 C4           5435 	.dw	0,(Smain$main$293)
      000D6C 00 00 83 C8           5436 	.dw	0,(Smain$main$294)
      000D70 00 02                 5437 	.dw	2
      000D72 78                    5438 	.db	120
      000D73 32                    5439 	.sleb128	50
      000D74 00 00 83 C2           5440 	.dw	0,(Smain$main$292)
      000D78 00 00 83 C4           5441 	.dw	0,(Smain$main$293)
      000D7C 00 02                 5442 	.dw	2
      000D7E 78                    5443 	.db	120
      000D7F 31                    5444 	.sleb128	49
      000D80 00 00 83 C0           5445 	.dw	0,(Smain$main$289)
      000D84 00 00 83 C2           5446 	.dw	0,(Smain$main$292)
      000D88 00 02                 5447 	.dw	2
      000D8A 78                    5448 	.db	120
      000D8B 30                    5449 	.sleb128	48
      000D8C 00 00 83 BC           5450 	.dw	0,(Smain$main$288)
      000D90 00 00 83 C0           5451 	.dw	0,(Smain$main$289)
      000D94 00 02                 5452 	.dw	2
      000D96 78                    5453 	.db	120
      000D97 32                    5454 	.sleb128	50
      000D98 00 00 83 B9           5455 	.dw	0,(Smain$main$286)
      000D9C 00 00 83 BC           5456 	.dw	0,(Smain$main$288)
      000DA0 00 02                 5457 	.dw	2
      000DA2 78                    5458 	.db	120
      000DA3 30                    5459 	.sleb128	48
      000DA4 00 00 83 B4           5460 	.dw	0,(Smain$main$285)
      000DA8 00 00 83 B9           5461 	.dw	0,(Smain$main$286)
      000DAC 00 02                 5462 	.dw	2
      000DAE 78                    5463 	.db	120
      000DAF 34                    5464 	.sleb128	52
      000DB0 00 00 83 AF           5465 	.dw	0,(Smain$main$284)
      000DB4 00 00 83 B4           5466 	.dw	0,(Smain$main$285)
      000DB8 00 02                 5467 	.dw	2
      000DBA 78                    5468 	.db	120
      000DBB 32                    5469 	.sleb128	50
      000DBC 00 00 83 AD           5470 	.dw	0,(Smain$main$283)
      000DC0 00 00 83 AF           5471 	.dw	0,(Smain$main$284)
      000DC4 00 02                 5472 	.dw	2
      000DC6 78                    5473 	.db	120
      000DC7 31                    5474 	.sleb128	49
      000DC8 00 00 83 AB           5475 	.dw	0,(Smain$main$281)
      000DCC 00 00 83 AD           5476 	.dw	0,(Smain$main$283)
      000DD0 00 02                 5477 	.dw	2
      000DD2 78                    5478 	.db	120
      000DD3 30                    5479 	.sleb128	48
      000DD4 00 00 83 A7           5480 	.dw	0,(Smain$main$280)
      000DD8 00 00 83 AB           5481 	.dw	0,(Smain$main$281)
      000DDC 00 02                 5482 	.dw	2
      000DDE 78                    5483 	.db	120
      000DDF 32                    5484 	.sleb128	50
      000DE0 00 00 83 A5           5485 	.dw	0,(Smain$main$279)
      000DE4 00 00 83 A7           5486 	.dw	0,(Smain$main$280)
      000DE8 00 02                 5487 	.dw	2
      000DEA 78                    5488 	.db	120
      000DEB 31                    5489 	.sleb128	49
      000DEC 00 00 83 9C           5490 	.dw	0,(Smain$main$276)
      000DF0 00 00 83 A5           5491 	.dw	0,(Smain$main$279)
      000DF4 00 02                 5492 	.dw	2
      000DF6 78                    5493 	.db	120
      000DF7 30                    5494 	.sleb128	48
      000DF8 00 00 83 8C           5495 	.dw	0,(Smain$main$272)
      000DFC 00 00 83 9C           5496 	.dw	0,(Smain$main$276)
      000E00 00 02                 5497 	.dw	2
      000E02 78                    5498 	.db	120
      000E03 30                    5499 	.sleb128	48
      000E04 00 00 83 88           5500 	.dw	0,(Smain$main$271)
      000E08 00 00 83 8C           5501 	.dw	0,(Smain$main$272)
      000E0C 00 02                 5502 	.dw	2
      000E0E 78                    5503 	.db	120
      000E0F 32                    5504 	.sleb128	50
      000E10 00 00 83 85           5505 	.dw	0,(Smain$main$269)
      000E14 00 00 83 88           5506 	.dw	0,(Smain$main$271)
      000E18 00 02                 5507 	.dw	2
      000E1A 78                    5508 	.db	120
      000E1B 30                    5509 	.sleb128	48
      000E1C 00 00 83 80           5510 	.dw	0,(Smain$main$268)
      000E20 00 00 83 85           5511 	.dw	0,(Smain$main$269)
      000E24 00 02                 5512 	.dw	2
      000E26 78                    5513 	.db	120
      000E27 34                    5514 	.sleb128	52
      000E28 00 00 83 7B           5515 	.dw	0,(Smain$main$267)
      000E2C 00 00 83 80           5516 	.dw	0,(Smain$main$268)
      000E30 00 02                 5517 	.dw	2
      000E32 78                    5518 	.db	120
      000E33 32                    5519 	.sleb128	50
      000E34 00 00 83 79           5520 	.dw	0,(Smain$main$266)
      000E38 00 00 83 7B           5521 	.dw	0,(Smain$main$267)
      000E3C 00 02                 5522 	.dw	2
      000E3E 78                    5523 	.db	120
      000E3F 31                    5524 	.sleb128	49
      000E40 00 00 83 77           5525 	.dw	0,(Smain$main$264)
      000E44 00 00 83 79           5526 	.dw	0,(Smain$main$266)
      000E48 00 02                 5527 	.dw	2
      000E4A 78                    5528 	.db	120
      000E4B 30                    5529 	.sleb128	48
      000E4C 00 00 83 73           5530 	.dw	0,(Smain$main$263)
      000E50 00 00 83 77           5531 	.dw	0,(Smain$main$264)
      000E54 00 02                 5532 	.dw	2
      000E56 78                    5533 	.db	120
      000E57 32                    5534 	.sleb128	50
      000E58 00 00 83 71           5535 	.dw	0,(Smain$main$262)
      000E5C 00 00 83 73           5536 	.dw	0,(Smain$main$263)
      000E60 00 02                 5537 	.dw	2
      000E62 78                    5538 	.db	120
      000E63 31                    5539 	.sleb128	49
      000E64 00 00 83 68           5540 	.dw	0,(Smain$main$259)
      000E68 00 00 83 71           5541 	.dw	0,(Smain$main$262)
      000E6C 00 02                 5542 	.dw	2
      000E6E 78                    5543 	.db	120
      000E6F 30                    5544 	.sleb128	48
      000E70 00 00 83 56           5545 	.dw	0,(Smain$main$255)
      000E74 00 00 83 68           5546 	.dw	0,(Smain$main$259)
      000E78 00 02                 5547 	.dw	2
      000E7A 78                    5548 	.db	120
      000E7B 30                    5549 	.sleb128	48
      000E7C 00 00 83 52           5550 	.dw	0,(Smain$main$254)
      000E80 00 00 83 56           5551 	.dw	0,(Smain$main$255)
      000E84 00 02                 5552 	.dw	2
      000E86 78                    5553 	.db	120
      000E87 32                    5554 	.sleb128	50
      000E88 00 00 83 4F           5555 	.dw	0,(Smain$main$252)
      000E8C 00 00 83 52           5556 	.dw	0,(Smain$main$254)
      000E90 00 02                 5557 	.dw	2
      000E92 78                    5558 	.db	120
      000E93 30                    5559 	.sleb128	48
      000E94 00 00 83 4A           5560 	.dw	0,(Smain$main$251)
      000E98 00 00 83 4F           5561 	.dw	0,(Smain$main$252)
      000E9C 00 02                 5562 	.dw	2
      000E9E 78                    5563 	.db	120
      000E9F 34                    5564 	.sleb128	52
      000EA0 00 00 83 45           5565 	.dw	0,(Smain$main$250)
      000EA4 00 00 83 4A           5566 	.dw	0,(Smain$main$251)
      000EA8 00 02                 5567 	.dw	2
      000EAA 78                    5568 	.db	120
      000EAB 32                    5569 	.sleb128	50
      000EAC 00 00 83 43           5570 	.dw	0,(Smain$main$249)
      000EB0 00 00 83 45           5571 	.dw	0,(Smain$main$250)
      000EB4 00 02                 5572 	.dw	2
      000EB6 78                    5573 	.db	120
      000EB7 31                    5574 	.sleb128	49
      000EB8 00 00 83 41           5575 	.dw	0,(Smain$main$247)
      000EBC 00 00 83 43           5576 	.dw	0,(Smain$main$249)
      000EC0 00 02                 5577 	.dw	2
      000EC2 78                    5578 	.db	120
      000EC3 30                    5579 	.sleb128	48
      000EC4 00 00 83 3D           5580 	.dw	0,(Smain$main$246)
      000EC8 00 00 83 41           5581 	.dw	0,(Smain$main$247)
      000ECC 00 02                 5582 	.dw	2
      000ECE 78                    5583 	.db	120
      000ECF 32                    5584 	.sleb128	50
      000ED0 00 00 83 3B           5585 	.dw	0,(Smain$main$245)
      000ED4 00 00 83 3D           5586 	.dw	0,(Smain$main$246)
      000ED8 00 02                 5587 	.dw	2
      000EDA 78                    5588 	.db	120
      000EDB 31                    5589 	.sleb128	49
      000EDC 00 00 83 30           5590 	.dw	0,(Smain$main$241)
      000EE0 00 00 83 3B           5591 	.dw	0,(Smain$main$245)
      000EE4 00 02                 5592 	.dw	2
      000EE6 78                    5593 	.db	120
      000EE7 30                    5594 	.sleb128	48
      000EE8 00 00 83 2B           5595 	.dw	0,(Smain$main$240)
      000EEC 00 00 83 30           5596 	.dw	0,(Smain$main$241)
      000EF0 00 02                 5597 	.dw	2
      000EF2 78                    5598 	.db	120
      000EF3 38                    5599 	.sleb128	56
      000EF4 00 00 83 29           5600 	.dw	0,(Smain$main$239)
      000EF8 00 00 83 2B           5601 	.dw	0,(Smain$main$240)
      000EFC 00 02                 5602 	.dw	2
      000EFE 78                    5603 	.db	120
      000EFF 36                    5604 	.sleb128	54
      000F00 00 00 83 28           5605 	.dw	0,(Smain$main$238)
      000F04 00 00 83 29           5606 	.dw	0,(Smain$main$239)
      000F08 00 02                 5607 	.dw	2
      000F0A 78                    5608 	.db	120
      000F0B 34                    5609 	.sleb128	52
      000F0C 00 00 83 26           5610 	.dw	0,(Smain$main$237)
      000F10 00 00 83 28           5611 	.dw	0,(Smain$main$238)
      000F14 00 02                 5612 	.dw	2
      000F16 78                    5613 	.db	120
      000F17 33                    5614 	.sleb128	51
      000F18 00 00 83 24           5615 	.dw	0,(Smain$main$236)
      000F1C 00 00 83 26           5616 	.dw	0,(Smain$main$237)
      000F20 00 02                 5617 	.dw	2
      000F22 78                    5618 	.db	120
      000F23 32                    5619 	.sleb128	50
      000F24 00 00 83 22           5620 	.dw	0,(Smain$main$235)
      000F28 00 00 83 24           5621 	.dw	0,(Smain$main$236)
      000F2C 00 02                 5622 	.dw	2
      000F2E 78                    5623 	.db	120
      000F2F 31                    5624 	.sleb128	49
      000F30 00 00 83 10           5625 	.dw	0,(Smain$main$231)
      000F34 00 00 83 22           5626 	.dw	0,(Smain$main$235)
      000F38 00 02                 5627 	.dw	2
      000F3A 78                    5628 	.db	120
      000F3B 30                    5629 	.sleb128	48
      000F3C 00 00 83 0B           5630 	.dw	0,(Smain$main$230)
      000F40 00 00 83 10           5631 	.dw	0,(Smain$main$231)
      000F44 00 02                 5632 	.dw	2
      000F46 78                    5633 	.db	120
      000F47 33                    5634 	.sleb128	51
      000F48 00 00 83 09           5635 	.dw	0,(Smain$main$229)
      000F4C 00 00 83 0B           5636 	.dw	0,(Smain$main$230)
      000F50 00 02                 5637 	.dw	2
      000F52 78                    5638 	.db	120
      000F53 32                    5639 	.sleb128	50
      000F54 00 00 83 07           5640 	.dw	0,(Smain$main$228)
      000F58 00 00 83 09           5641 	.dw	0,(Smain$main$229)
      000F5C 00 02                 5642 	.dw	2
      000F5E 78                    5643 	.db	120
      000F5F 31                    5644 	.sleb128	49
      000F60 00 00 82 FD           5645 	.dw	0,(Smain$main$224)
      000F64 00 00 83 07           5646 	.dw	0,(Smain$main$228)
      000F68 00 02                 5647 	.dw	2
      000F6A 78                    5648 	.db	120
      000F6B 30                    5649 	.sleb128	48
      000F6C 00 00 82 F9           5650 	.dw	0,(Smain$main$223)
      000F70 00 00 82 FD           5651 	.dw	0,(Smain$main$224)
      000F74 00 02                 5652 	.dw	2
      000F76 78                    5653 	.db	120
      000F77 32                    5654 	.sleb128	50
      000F78 00 00 82 F6           5655 	.dw	0,(Smain$main$221)
      000F7C 00 00 82 F9           5656 	.dw	0,(Smain$main$223)
      000F80 00 02                 5657 	.dw	2
      000F82 78                    5658 	.db	120
      000F83 30                    5659 	.sleb128	48
      000F84 00 00 82 F1           5660 	.dw	0,(Smain$main$220)
      000F88 00 00 82 F6           5661 	.dw	0,(Smain$main$221)
      000F8C 00 02                 5662 	.dw	2
      000F8E 78                    5663 	.db	120
      000F8F 34                    5664 	.sleb128	52
      000F90 00 00 82 EC           5665 	.dw	0,(Smain$main$219)
      000F94 00 00 82 F1           5666 	.dw	0,(Smain$main$220)
      000F98 00 02                 5667 	.dw	2
      000F9A 78                    5668 	.db	120
      000F9B 32                    5669 	.sleb128	50
      000F9C 00 00 82 EA           5670 	.dw	0,(Smain$main$218)
      000FA0 00 00 82 EC           5671 	.dw	0,(Smain$main$219)
      000FA4 00 02                 5672 	.dw	2
      000FA6 78                    5673 	.db	120
      000FA7 31                    5674 	.sleb128	49
      000FA8 00 00 82 E8           5675 	.dw	0,(Smain$main$216)
      000FAC 00 00 82 EA           5676 	.dw	0,(Smain$main$218)
      000FB0 00 02                 5677 	.dw	2
      000FB2 78                    5678 	.db	120
      000FB3 30                    5679 	.sleb128	48
      000FB4 00 00 82 E4           5680 	.dw	0,(Smain$main$215)
      000FB8 00 00 82 E8           5681 	.dw	0,(Smain$main$216)
      000FBC 00 02                 5682 	.dw	2
      000FBE 78                    5683 	.db	120
      000FBF 32                    5684 	.sleb128	50
      000FC0 00 00 82 E2           5685 	.dw	0,(Smain$main$214)
      000FC4 00 00 82 E4           5686 	.dw	0,(Smain$main$215)
      000FC8 00 02                 5687 	.dw	2
      000FCA 78                    5688 	.db	120
      000FCB 31                    5689 	.sleb128	49
      000FCC 00 00 82 CE           5690 	.dw	0,(Smain$main$208)
      000FD0 00 00 82 E2           5691 	.dw	0,(Smain$main$214)
      000FD4 00 02                 5692 	.dw	2
      000FD6 78                    5693 	.db	120
      000FD7 30                    5694 	.sleb128	48
      000FD8 00 00 82 CA           5695 	.dw	0,(Smain$main$207)
      000FDC 00 00 82 CE           5696 	.dw	0,(Smain$main$208)
      000FE0 00 02                 5697 	.dw	2
      000FE2 78                    5698 	.db	120
      000FE3 32                    5699 	.sleb128	50
      000FE4 00 00 82 C7           5700 	.dw	0,(Smain$main$205)
      000FE8 00 00 82 CA           5701 	.dw	0,(Smain$main$207)
      000FEC 00 02                 5702 	.dw	2
      000FEE 78                    5703 	.db	120
      000FEF 30                    5704 	.sleb128	48
      000FF0 00 00 82 C2           5705 	.dw	0,(Smain$main$204)
      000FF4 00 00 82 C7           5706 	.dw	0,(Smain$main$205)
      000FF8 00 02                 5707 	.dw	2
      000FFA 78                    5708 	.db	120
      000FFB 34                    5709 	.sleb128	52
      000FFC 00 00 82 BD           5710 	.dw	0,(Smain$main$203)
      001000 00 00 82 C2           5711 	.dw	0,(Smain$main$204)
      001004 00 02                 5712 	.dw	2
      001006 78                    5713 	.db	120
      001007 32                    5714 	.sleb128	50
      001008 00 00 82 BB           5715 	.dw	0,(Smain$main$202)
      00100C 00 00 82 BD           5716 	.dw	0,(Smain$main$203)
      001010 00 02                 5717 	.dw	2
      001012 78                    5718 	.db	120
      001013 31                    5719 	.sleb128	49
      001014 00 00 82 B9           5720 	.dw	0,(Smain$main$200)
      001018 00 00 82 BB           5721 	.dw	0,(Smain$main$202)
      00101C 00 02                 5722 	.dw	2
      00101E 78                    5723 	.db	120
      00101F 30                    5724 	.sleb128	48
      001020 00 00 82 B5           5725 	.dw	0,(Smain$main$199)
      001024 00 00 82 B9           5726 	.dw	0,(Smain$main$200)
      001028 00 02                 5727 	.dw	2
      00102A 78                    5728 	.db	120
      00102B 32                    5729 	.sleb128	50
      00102C 00 00 82 B3           5730 	.dw	0,(Smain$main$198)
      001030 00 00 82 B5           5731 	.dw	0,(Smain$main$199)
      001034 00 02                 5732 	.dw	2
      001036 78                    5733 	.db	120
      001037 31                    5734 	.sleb128	49
      001038 00 00 82 95           5735 	.dw	0,(Smain$main$192)
      00103C 00 00 82 B3           5736 	.dw	0,(Smain$main$198)
      001040 00 02                 5737 	.dw	2
      001042 78                    5738 	.db	120
      001043 30                    5739 	.sleb128	48
      001044 00 00 82 91           5740 	.dw	0,(Smain$main$191)
      001048 00 00 82 95           5741 	.dw	0,(Smain$main$192)
      00104C 00 02                 5742 	.dw	2
      00104E 78                    5743 	.db	120
      00104F 32                    5744 	.sleb128	50
      001050 00 00 82 8E           5745 	.dw	0,(Smain$main$189)
      001054 00 00 82 91           5746 	.dw	0,(Smain$main$191)
      001058 00 02                 5747 	.dw	2
      00105A 78                    5748 	.db	120
      00105B 30                    5749 	.sleb128	48
      00105C 00 00 82 89           5750 	.dw	0,(Smain$main$188)
      001060 00 00 82 8E           5751 	.dw	0,(Smain$main$189)
      001064 00 02                 5752 	.dw	2
      001066 78                    5753 	.db	120
      001067 34                    5754 	.sleb128	52
      001068 00 00 82 84           5755 	.dw	0,(Smain$main$187)
      00106C 00 00 82 89           5756 	.dw	0,(Smain$main$188)
      001070 00 02                 5757 	.dw	2
      001072 78                    5758 	.db	120
      001073 32                    5759 	.sleb128	50
      001074 00 00 82 82           5760 	.dw	0,(Smain$main$186)
      001078 00 00 82 84           5761 	.dw	0,(Smain$main$187)
      00107C 00 02                 5762 	.dw	2
      00107E 78                    5763 	.db	120
      00107F 31                    5764 	.sleb128	49
      001080 00 00 82 80           5765 	.dw	0,(Smain$main$184)
      001084 00 00 82 82           5766 	.dw	0,(Smain$main$186)
      001088 00 02                 5767 	.dw	2
      00108A 78                    5768 	.db	120
      00108B 30                    5769 	.sleb128	48
      00108C 00 00 82 7C           5770 	.dw	0,(Smain$main$183)
      001090 00 00 82 80           5771 	.dw	0,(Smain$main$184)
      001094 00 02                 5772 	.dw	2
      001096 78                    5773 	.db	120
      001097 32                    5774 	.sleb128	50
      001098 00 00 82 7A           5775 	.dw	0,(Smain$main$182)
      00109C 00 00 82 7C           5776 	.dw	0,(Smain$main$183)
      0010A0 00 02                 5777 	.dw	2
      0010A2 78                    5778 	.db	120
      0010A3 31                    5779 	.sleb128	49
      0010A4 00 00 82 6C           5780 	.dw	0,(Smain$main$177)
      0010A8 00 00 82 7A           5781 	.dw	0,(Smain$main$182)
      0010AC 00 02                 5782 	.dw	2
      0010AE 78                    5783 	.db	120
      0010AF 30                    5784 	.sleb128	48
      0010B0 00 00 82 68           5785 	.dw	0,(Smain$main$176)
      0010B4 00 00 82 6C           5786 	.dw	0,(Smain$main$177)
      0010B8 00 02                 5787 	.dw	2
      0010BA 78                    5788 	.db	120
      0010BB 31                    5789 	.sleb128	49
      0010BC 00 00 82 66           5790 	.dw	0,(Smain$main$174)
      0010C0 00 00 82 68           5791 	.dw	0,(Smain$main$176)
      0010C4 00 02                 5792 	.dw	2
      0010C6 78                    5793 	.db	120
      0010C7 30                    5794 	.sleb128	48
      0010C8 00 00 82 62           5795 	.dw	0,(Smain$main$173)
      0010CC 00 00 82 66           5796 	.dw	0,(Smain$main$174)
      0010D0 00 02                 5797 	.dw	2
      0010D2 78                    5798 	.db	120
      0010D3 32                    5799 	.sleb128	50
      0010D4 00 00 82 5F           5800 	.dw	0,(Smain$main$171)
      0010D8 00 00 82 62           5801 	.dw	0,(Smain$main$173)
      0010DC 00 02                 5802 	.dw	2
      0010DE 78                    5803 	.db	120
      0010DF 30                    5804 	.sleb128	48
      0010E0 00 00 82 5A           5805 	.dw	0,(Smain$main$170)
      0010E4 00 00 82 5F           5806 	.dw	0,(Smain$main$171)
      0010E8 00 02                 5807 	.dw	2
      0010EA 78                    5808 	.db	120
      0010EB 34                    5809 	.sleb128	52
      0010EC 00 00 82 55           5810 	.dw	0,(Smain$main$169)
      0010F0 00 00 82 5A           5811 	.dw	0,(Smain$main$170)
      0010F4 00 02                 5812 	.dw	2
      0010F6 78                    5813 	.db	120
      0010F7 32                    5814 	.sleb128	50
      0010F8 00 00 82 53           5815 	.dw	0,(Smain$main$168)
      0010FC 00 00 82 55           5816 	.dw	0,(Smain$main$169)
      001100 00 02                 5817 	.dw	2
      001102 78                    5818 	.db	120
      001103 31                    5819 	.sleb128	49
      001104 00 00 82 51           5820 	.dw	0,(Smain$main$166)
      001108 00 00 82 53           5821 	.dw	0,(Smain$main$168)
      00110C 00 02                 5822 	.dw	2
      00110E 78                    5823 	.db	120
      00110F 30                    5824 	.sleb128	48
      001110 00 00 82 4D           5825 	.dw	0,(Smain$main$165)
      001114 00 00 82 51           5826 	.dw	0,(Smain$main$166)
      001118 00 02                 5827 	.dw	2
      00111A 78                    5828 	.db	120
      00111B 32                    5829 	.sleb128	50
      00111C 00 00 82 4B           5830 	.dw	0,(Smain$main$164)
      001120 00 00 82 4D           5831 	.dw	0,(Smain$main$165)
      001124 00 02                 5832 	.dw	2
      001126 78                    5833 	.db	120
      001127 31                    5834 	.sleb128	49
      001128 00 00 82 49           5835 	.dw	0,(Smain$main$162)
      00112C 00 00 82 4B           5836 	.dw	0,(Smain$main$164)
      001130 00 02                 5837 	.dw	2
      001132 78                    5838 	.db	120
      001133 30                    5839 	.sleb128	48
      001134 00 00 82 45           5840 	.dw	0,(Smain$main$161)
      001138 00 00 82 49           5841 	.dw	0,(Smain$main$162)
      00113C 00 02                 5842 	.dw	2
      00113E 78                    5843 	.db	120
      00113F 32                    5844 	.sleb128	50
      001140 00 00 82 42           5845 	.dw	0,(Smain$main$159)
      001144 00 00 82 45           5846 	.dw	0,(Smain$main$161)
      001148 00 02                 5847 	.dw	2
      00114A 78                    5848 	.db	120
      00114B 30                    5849 	.sleb128	48
      00114C 00 00 82 3D           5850 	.dw	0,(Smain$main$158)
      001150 00 00 82 42           5851 	.dw	0,(Smain$main$159)
      001154 00 02                 5852 	.dw	2
      001156 78                    5853 	.db	120
      001157 34                    5854 	.sleb128	52
      001158 00 00 82 38           5855 	.dw	0,(Smain$main$157)
      00115C 00 00 82 3D           5856 	.dw	0,(Smain$main$158)
      001160 00 02                 5857 	.dw	2
      001162 78                    5858 	.db	120
      001163 32                    5859 	.sleb128	50
      001164 00 00 82 36           5860 	.dw	0,(Smain$main$156)
      001168 00 00 82 38           5861 	.dw	0,(Smain$main$157)
      00116C 00 02                 5862 	.dw	2
      00116E 78                    5863 	.db	120
      00116F 31                    5864 	.sleb128	49
      001170 00 00 82 34           5865 	.dw	0,(Smain$main$154)
      001174 00 00 82 36           5866 	.dw	0,(Smain$main$156)
      001178 00 02                 5867 	.dw	2
      00117A 78                    5868 	.db	120
      00117B 30                    5869 	.sleb128	48
      00117C 00 00 82 30           5870 	.dw	0,(Smain$main$153)
      001180 00 00 82 34           5871 	.dw	0,(Smain$main$154)
      001184 00 02                 5872 	.dw	2
      001186 78                    5873 	.db	120
      001187 32                    5874 	.sleb128	50
      001188 00 00 82 2E           5875 	.dw	0,(Smain$main$152)
      00118C 00 00 82 30           5876 	.dw	0,(Smain$main$153)
      001190 00 02                 5877 	.dw	2
      001192 78                    5878 	.db	120
      001193 31                    5879 	.sleb128	49
      001194 00 00 82 2C           5880 	.dw	0,(Smain$main$150)
      001198 00 00 82 2E           5881 	.dw	0,(Smain$main$152)
      00119C 00 02                 5882 	.dw	2
      00119E 78                    5883 	.db	120
      00119F 30                    5884 	.sleb128	48
      0011A0 00 00 82 28           5885 	.dw	0,(Smain$main$149)
      0011A4 00 00 82 2C           5886 	.dw	0,(Smain$main$150)
      0011A8 00 02                 5887 	.dw	2
      0011AA 78                    5888 	.db	120
      0011AB 32                    5889 	.sleb128	50
      0011AC 00 00 82 25           5890 	.dw	0,(Smain$main$147)
      0011B0 00 00 82 28           5891 	.dw	0,(Smain$main$149)
      0011B4 00 02                 5892 	.dw	2
      0011B6 78                    5893 	.db	120
      0011B7 30                    5894 	.sleb128	48
      0011B8 00 00 82 20           5895 	.dw	0,(Smain$main$146)
      0011BC 00 00 82 25           5896 	.dw	0,(Smain$main$147)
      0011C0 00 02                 5897 	.dw	2
      0011C2 78                    5898 	.db	120
      0011C3 34                    5899 	.sleb128	52
      0011C4 00 00 82 1B           5900 	.dw	0,(Smain$main$145)
      0011C8 00 00 82 20           5901 	.dw	0,(Smain$main$146)
      0011CC 00 02                 5902 	.dw	2
      0011CE 78                    5903 	.db	120
      0011CF 32                    5904 	.sleb128	50
      0011D0 00 00 82 19           5905 	.dw	0,(Smain$main$144)
      0011D4 00 00 82 1B           5906 	.dw	0,(Smain$main$145)
      0011D8 00 02                 5907 	.dw	2
      0011DA 78                    5908 	.db	120
      0011DB 31                    5909 	.sleb128	49
      0011DC 00 00 82 17           5910 	.dw	0,(Smain$main$142)
      0011E0 00 00 82 19           5911 	.dw	0,(Smain$main$144)
      0011E4 00 02                 5912 	.dw	2
      0011E6 78                    5913 	.db	120
      0011E7 30                    5914 	.sleb128	48
      0011E8 00 00 82 13           5915 	.dw	0,(Smain$main$141)
      0011EC 00 00 82 17           5916 	.dw	0,(Smain$main$142)
      0011F0 00 02                 5917 	.dw	2
      0011F2 78                    5918 	.db	120
      0011F3 32                    5919 	.sleb128	50
      0011F4 00 00 82 11           5920 	.dw	0,(Smain$main$140)
      0011F8 00 00 82 13           5921 	.dw	0,(Smain$main$141)
      0011FC 00 02                 5922 	.dw	2
      0011FE 78                    5923 	.db	120
      0011FF 31                    5924 	.sleb128	49
      001200 00 00 82 0F           5925 	.dw	0,(Smain$main$138)
      001204 00 00 82 11           5926 	.dw	0,(Smain$main$140)
      001208 00 02                 5927 	.dw	2
      00120A 78                    5928 	.db	120
      00120B 30                    5929 	.sleb128	48
      00120C 00 00 82 0B           5930 	.dw	0,(Smain$main$137)
      001210 00 00 82 0F           5931 	.dw	0,(Smain$main$138)
      001214 00 02                 5932 	.dw	2
      001216 78                    5933 	.db	120
      001217 32                    5934 	.sleb128	50
      001218 00 00 82 08           5935 	.dw	0,(Smain$main$135)
      00121C 00 00 82 0B           5936 	.dw	0,(Smain$main$137)
      001220 00 02                 5937 	.dw	2
      001222 78                    5938 	.db	120
      001223 30                    5939 	.sleb128	48
      001224 00 00 82 03           5940 	.dw	0,(Smain$main$134)
      001228 00 00 82 08           5941 	.dw	0,(Smain$main$135)
      00122C 00 02                 5942 	.dw	2
      00122E 78                    5943 	.db	120
      00122F 34                    5944 	.sleb128	52
      001230 00 00 81 FE           5945 	.dw	0,(Smain$main$133)
      001234 00 00 82 03           5946 	.dw	0,(Smain$main$134)
      001238 00 02                 5947 	.dw	2
      00123A 78                    5948 	.db	120
      00123B 32                    5949 	.sleb128	50
      00123C 00 00 81 FC           5950 	.dw	0,(Smain$main$132)
      001240 00 00 81 FE           5951 	.dw	0,(Smain$main$133)
      001244 00 02                 5952 	.dw	2
      001246 78                    5953 	.db	120
      001247 31                    5954 	.sleb128	49
      001248 00 00 81 FA           5955 	.dw	0,(Smain$main$130)
      00124C 00 00 81 FC           5956 	.dw	0,(Smain$main$132)
      001250 00 02                 5957 	.dw	2
      001252 78                    5958 	.db	120
      001253 30                    5959 	.sleb128	48
      001254 00 00 81 F6           5960 	.dw	0,(Smain$main$129)
      001258 00 00 81 FA           5961 	.dw	0,(Smain$main$130)
      00125C 00 02                 5962 	.dw	2
      00125E 78                    5963 	.db	120
      00125F 32                    5964 	.sleb128	50
      001260 00 00 81 F4           5965 	.dw	0,(Smain$main$128)
      001264 00 00 81 F6           5966 	.dw	0,(Smain$main$129)
      001268 00 02                 5967 	.dw	2
      00126A 78                    5968 	.db	120
      00126B 31                    5969 	.sleb128	49
      00126C 00 00 81 E1           5970 	.dw	0,(Smain$main$122)
      001270 00 00 81 F4           5971 	.dw	0,(Smain$main$128)
      001274 00 02                 5972 	.dw	2
      001276 78                    5973 	.db	120
      001277 30                    5974 	.sleb128	48
      001278 00 00 81 DF           5975 	.dw	0,(Smain$main$121)
      00127C 00 00 81 E1           5976 	.dw	0,(Smain$main$122)
      001280 00 02                 5977 	.dw	2
      001282 78                    5978 	.db	120
      001283 01                    5979 	.sleb128	1
      001284 00 00 00 00           5980 	.dw	0,0
      001288 00 00 00 00           5981 	.dw	0,0
      00128C 00 00 81 DB           5982 	.dw	0,(Smain$setup$115)
      001290 00 00 81 DF           5983 	.dw	0,(Smain$setup$119)
      001294 00 02                 5984 	.dw	2
      001296 78                    5985 	.db	120
      001297 01                    5986 	.sleb128	1
      001298 00 00 81 D7           5987 	.dw	0,(Smain$setup$114)
      00129C 00 00 81 DB           5988 	.dw	0,(Smain$setup$115)
      0012A0 00 02                 5989 	.dw	2
      0012A2 78                    5990 	.db	120
      0012A3 02                    5991 	.sleb128	2
      0012A4 00 00 81 D5           5992 	.dw	0,(Smain$setup$112)
      0012A8 00 00 81 D7           5993 	.dw	0,(Smain$setup$114)
      0012AC 00 02                 5994 	.dw	2
      0012AE 78                    5995 	.db	120
      0012AF 01                    5996 	.sleb128	1
      0012B0 00 00 81 D1           5997 	.dw	0,(Smain$setup$111)
      0012B4 00 00 81 D5           5998 	.dw	0,(Smain$setup$112)
      0012B8 00 02                 5999 	.dw	2
      0012BA 78                    6000 	.db	120
      0012BB 02                    6001 	.sleb128	2
      0012BC 00 00 81 CF           6002 	.dw	0,(Smain$setup$109)
      0012C0 00 00 81 D1           6003 	.dw	0,(Smain$setup$111)
      0012C4 00 02                 6004 	.dw	2
      0012C6 78                    6005 	.db	120
      0012C7 01                    6006 	.sleb128	1
      0012C8 00 00 81 CB           6007 	.dw	0,(Smain$setup$108)
      0012CC 00 00 81 CF           6008 	.dw	0,(Smain$setup$109)
      0012D0 00 02                 6009 	.dw	2
      0012D2 78                    6010 	.db	120
      0012D3 02                    6011 	.sleb128	2
      0012D4 00 00 81 C9           6012 	.dw	0,(Smain$setup$106)
      0012D8 00 00 81 CB           6013 	.dw	0,(Smain$setup$108)
      0012DC 00 02                 6014 	.dw	2
      0012DE 78                    6015 	.db	120
      0012DF 01                    6016 	.sleb128	1
      0012E0 00 00 81 C5           6017 	.dw	0,(Smain$setup$105)
      0012E4 00 00 81 C9           6018 	.dw	0,(Smain$setup$106)
      0012E8 00 02                 6019 	.dw	2
      0012EA 78                    6020 	.db	120
      0012EB 02                    6021 	.sleb128	2
      0012EC 00 00 81 C3           6022 	.dw	0,(Smain$setup$103)
      0012F0 00 00 81 C5           6023 	.dw	0,(Smain$setup$105)
      0012F4 00 02                 6024 	.dw	2
      0012F6 78                    6025 	.db	120
      0012F7 01                    6026 	.sleb128	1
      0012F8 00 00 81 BF           6027 	.dw	0,(Smain$setup$102)
      0012FC 00 00 81 C3           6028 	.dw	0,(Smain$setup$103)
      001300 00 02                 6029 	.dw	2
      001302 78                    6030 	.db	120
      001303 03                    6031 	.sleb128	3
      001304 00 00 81 BD           6032 	.dw	0,(Smain$setup$101)
      001308 00 00 81 BF           6033 	.dw	0,(Smain$setup$102)
      00130C 00 02                 6034 	.dw	2
      00130E 78                    6035 	.db	120
      00130F 02                    6036 	.sleb128	2
      001310 00 00 81 BB           6037 	.dw	0,(Smain$setup$99)
      001314 00 00 81 BD           6038 	.dw	0,(Smain$setup$101)
      001318 00 02                 6039 	.dw	2
      00131A 78                    6040 	.db	120
      00131B 01                    6041 	.sleb128	1
      00131C 00 00 81 B7           6042 	.dw	0,(Smain$setup$98)
      001320 00 00 81 BB           6043 	.dw	0,(Smain$setup$99)
      001324 00 02                 6044 	.dw	2
      001326 78                    6045 	.db	120
      001327 03                    6046 	.sleb128	3
      001328 00 00 81 B5           6047 	.dw	0,(Smain$setup$97)
      00132C 00 00 81 B7           6048 	.dw	0,(Smain$setup$98)
      001330 00 02                 6049 	.dw	2
      001332 78                    6050 	.db	120
      001333 02                    6051 	.sleb128	2
      001334 00 00 81 AD           6052 	.dw	0,(Smain$setup$93)
      001338 00 00 81 B5           6053 	.dw	0,(Smain$setup$97)
      00133C 00 02                 6054 	.dw	2
      00133E 78                    6055 	.db	120
      00133F 01                    6056 	.sleb128	1
      001340 00 00 81 A8           6057 	.dw	0,(Smain$setup$92)
      001344 00 00 81 AD           6058 	.dw	0,(Smain$setup$93)
      001348 00 02                 6059 	.dw	2
      00134A 78                    6060 	.db	120
      00134B 05                    6061 	.sleb128	5
      00134C 00 00 81 A6           6062 	.dw	0,(Smain$setup$91)
      001350 00 00 81 A8           6063 	.dw	0,(Smain$setup$92)
      001354 00 02                 6064 	.dw	2
      001356 78                    6065 	.db	120
      001357 04                    6066 	.sleb128	4
      001358 00 00 81 A4           6067 	.dw	0,(Smain$setup$90)
      00135C 00 00 81 A6           6068 	.dw	0,(Smain$setup$91)
      001360 00 02                 6069 	.dw	2
      001362 78                    6070 	.db	120
      001363 03                    6071 	.sleb128	3
      001364 00 00 81 A2           6072 	.dw	0,(Smain$setup$89)
      001368 00 00 81 A4           6073 	.dw	0,(Smain$setup$90)
      00136C 00 02                 6074 	.dw	2
      00136E 78                    6075 	.db	120
      00136F 02                    6076 	.sleb128	2
      001370 00 00 81 A0           6077 	.dw	0,(Smain$setup$87)
      001374 00 00 81 A2           6078 	.dw	0,(Smain$setup$89)
      001378 00 02                 6079 	.dw	2
      00137A 78                    6080 	.db	120
      00137B 01                    6081 	.sleb128	1
      00137C 00 00 81 9B           6082 	.dw	0,(Smain$setup$86)
      001380 00 00 81 A0           6083 	.dw	0,(Smain$setup$87)
      001384 00 02                 6084 	.dw	2
      001386 78                    6085 	.db	120
      001387 05                    6086 	.sleb128	5
      001388 00 00 81 99           6087 	.dw	0,(Smain$setup$85)
      00138C 00 00 81 9B           6088 	.dw	0,(Smain$setup$86)
      001390 00 02                 6089 	.dw	2
      001392 78                    6090 	.db	120
      001393 04                    6091 	.sleb128	4
      001394 00 00 81 97           6092 	.dw	0,(Smain$setup$84)
      001398 00 00 81 99           6093 	.dw	0,(Smain$setup$85)
      00139C 00 02                 6094 	.dw	2
      00139E 78                    6095 	.db	120
      00139F 03                    6096 	.sleb128	3
      0013A0 00 00 81 95           6097 	.dw	0,(Smain$setup$83)
      0013A4 00 00 81 97           6098 	.dw	0,(Smain$setup$84)
      0013A8 00 02                 6099 	.dw	2
      0013AA 78                    6100 	.db	120
      0013AB 02                    6101 	.sleb128	2
      0013AC 00 00 81 93           6102 	.dw	0,(Smain$setup$81)
      0013B0 00 00 81 95           6103 	.dw	0,(Smain$setup$83)
      0013B4 00 02                 6104 	.dw	2
      0013B6 78                    6105 	.db	120
      0013B7 01                    6106 	.sleb128	1
      0013B8 00 00 81 8F           6107 	.dw	0,(Smain$setup$80)
      0013BC 00 00 81 93           6108 	.dw	0,(Smain$setup$81)
      0013C0 00 02                 6109 	.dw	2
      0013C2 78                    6110 	.db	120
      0013C3 02                    6111 	.sleb128	2
      0013C4 00 00 81 8D           6112 	.dw	0,(Smain$setup$78)
      0013C8 00 00 81 8F           6113 	.dw	0,(Smain$setup$80)
      0013CC 00 02                 6114 	.dw	2
      0013CE 78                    6115 	.db	120
      0013CF 01                    6116 	.sleb128	1
      0013D0 00 00 00 00           6117 	.dw	0,0
      0013D4 00 00 00 00           6118 	.dw	0,0
      0013D8 00 00 81 8C           6119 	.dw	0,(Smain$delay_ms$74)
      0013DC 00 00 81 8D           6120 	.dw	0,(Smain$delay_ms$76)
      0013E0 00 02                 6121 	.dw	2
      0013E2 78                    6122 	.db	120
      0013E3 01                    6123 	.sleb128	1
      0013E4 00 00 81 43           6124 	.dw	0,(Smain$delay_ms$45)
      0013E8 00 00 81 8C           6125 	.dw	0,(Smain$delay_ms$74)
      0013EC 00 02                 6126 	.dw	2
      0013EE 78                    6127 	.db	120
      0013EF 03                    6128 	.sleb128	3
      0013F0 00 00 81 42           6129 	.dw	0,(Smain$delay_ms$44)
      0013F4 00 00 81 43           6130 	.dw	0,(Smain$delay_ms$45)
      0013F8 00 02                 6131 	.dw	2
      0013FA 78                    6132 	.db	120
      0013FB 01                    6133 	.sleb128	1
      0013FC 00 00 00 00           6134 	.dw	0,0
      001400 00 00 00 00           6135 	.dw	0,0
      001404 00 00 81 2D           6136 	.dw	0,(Smain$_delay_us$29)
      001408 00 00 81 42           6137 	.dw	0,(Smain$_delay_us$42)
      00140C 00 02                 6138 	.dw	2
      00140E 78                    6139 	.db	120
      00140F 01                    6140 	.sleb128	1
      001410 00 00 81 28           6141 	.dw	0,(Smain$_delay_us$28)
      001414 00 00 81 2D           6142 	.dw	0,(Smain$_delay_us$29)
      001418 00 02                 6143 	.dw	2
      00141A 78                    6144 	.db	120
      00141B 09                    6145 	.sleb128	9
      00141C 00 00 81 26           6146 	.dw	0,(Smain$_delay_us$27)
      001420 00 00 81 28           6147 	.dw	0,(Smain$_delay_us$28)
      001424 00 02                 6148 	.dw	2
      001426 78                    6149 	.db	120
      001427 07                    6150 	.sleb128	7
      001428 00 00 81 25           6151 	.dw	0,(Smain$_delay_us$26)
      00142C 00 00 81 26           6152 	.dw	0,(Smain$_delay_us$27)
      001430 00 02                 6153 	.dw	2
      001432 78                    6154 	.db	120
      001433 05                    6155 	.sleb128	5
      001434 00 00 81 23           6156 	.dw	0,(Smain$_delay_us$25)
      001438 00 00 81 25           6157 	.dw	0,(Smain$_delay_us$26)
      00143C 00 02                 6158 	.dw	2
      00143E 78                    6159 	.db	120
      00143F 04                    6160 	.sleb128	4
      001440 00 00 81 21           6161 	.dw	0,(Smain$_delay_us$24)
      001444 00 00 81 23           6162 	.dw	0,(Smain$_delay_us$25)
      001448 00 02                 6163 	.dw	2
      00144A 78                    6164 	.db	120
      00144B 03                    6165 	.sleb128	3
      00144C 00 00 81 1F           6166 	.dw	0,(Smain$_delay_us$23)
      001450 00 00 81 21           6167 	.dw	0,(Smain$_delay_us$24)
      001454 00 02                 6168 	.dw	2
      001456 78                    6169 	.db	120
      001457 02                    6170 	.sleb128	2
      001458 00 00 81 1D           6171 	.dw	0,(Smain$_delay_us$21)
      00145C 00 00 81 1F           6172 	.dw	0,(Smain$_delay_us$23)
      001460 00 02                 6173 	.dw	2
      001462 78                    6174 	.db	120
      001463 01                    6175 	.sleb128	1
      001464 00 00 81 18           6176 	.dw	0,(Smain$_delay_us$20)
      001468 00 00 81 1D           6177 	.dw	0,(Smain$_delay_us$21)
      00146C 00 02                 6178 	.dw	2
      00146E 78                    6179 	.db	120
      00146F 09                    6180 	.sleb128	9
      001470 00 00 81 16           6181 	.dw	0,(Smain$_delay_us$19)
      001474 00 00 81 18           6182 	.dw	0,(Smain$_delay_us$20)
      001478 00 02                 6183 	.dw	2
      00147A 78                    6184 	.db	120
      00147B 08                    6185 	.sleb128	8
      00147C 00 00 81 14           6186 	.dw	0,(Smain$_delay_us$18)
      001480 00 00 81 16           6187 	.dw	0,(Smain$_delay_us$19)
      001484 00 02                 6188 	.dw	2
      001486 78                    6189 	.db	120
      001487 07                    6190 	.sleb128	7
      001488 00 00 81 12           6191 	.dw	0,(Smain$_delay_us$17)
      00148C 00 00 81 14           6192 	.dw	0,(Smain$_delay_us$18)
      001490 00 02                 6193 	.dw	2
      001492 78                    6194 	.db	120
      001493 06                    6195 	.sleb128	6
      001494 00 00 81 10           6196 	.dw	0,(Smain$_delay_us$16)
      001498 00 00 81 12           6197 	.dw	0,(Smain$_delay_us$17)
      00149C 00 02                 6198 	.dw	2
      00149E 78                    6199 	.db	120
      00149F 05                    6200 	.sleb128	5
      0014A0 00 00 81 0F           6201 	.dw	0,(Smain$_delay_us$15)
      0014A4 00 00 81 10           6202 	.dw	0,(Smain$_delay_us$16)
      0014A8 00 02                 6203 	.dw	2
      0014AA 78                    6204 	.db	120
      0014AB 03                    6205 	.sleb128	3
      0014AC 00 00 81 0A           6206 	.dw	0,(Smain$_delay_us$13)
      0014B0 00 00 81 0F           6207 	.dw	0,(Smain$_delay_us$15)
      0014B4 00 02                 6208 	.dw	2
      0014B6 78                    6209 	.db	120
      0014B7 01                    6210 	.sleb128	1
      0014B8 00 00 00 00           6211 	.dw	0,0
      0014BC 00 00 00 00           6212 	.dw	0,0
      0014C0 00 00 80 FD           6213 	.dw	0,(Smain$_delay_cycl$1)
      0014C4 00 00 81 0A           6214 	.dw	0,(Smain$_delay_cycl$11)
      0014C8 00 02                 6215 	.dw	2
      0014CA 78                    6216 	.db	120
      0014CB 01                    6217 	.sleb128	1
      0014CC 00 00 00 00           6218 	.dw	0,0
      0014D0 00 00 00 00           6219 	.dw	0,0
                                   6220 
                                   6221 	.area .debug_abbrev (NOLOAD)
      000000                       6222 Ldebug_abbrev:
      000000 0C                    6223 	.uleb128	12
      000001 0B                    6224 	.uleb128	11
      000002 01                    6225 	.db	1
      000003 00                    6226 	.uleb128	0
      000004 00                    6227 	.uleb128	0
      000005 03                    6228 	.uleb128	3
      000006 05                    6229 	.uleb128	5
      000007 00                    6230 	.db	0
      000008 02                    6231 	.uleb128	2
      000009 0A                    6232 	.uleb128	10
      00000A 03                    6233 	.uleb128	3
      00000B 08                    6234 	.uleb128	8
      00000C 49                    6235 	.uleb128	73
      00000D 13                    6236 	.uleb128	19
      00000E 00                    6237 	.uleb128	0
      00000F 00                    6238 	.uleb128	0
      000010 10                    6239 	.uleb128	16
      000011 01                    6240 	.uleb128	1
      000012 01                    6241 	.db	1
      000013 01                    6242 	.uleb128	1
      000014 13                    6243 	.uleb128	19
      000015 0B                    6244 	.uleb128	11
      000016 0B                    6245 	.uleb128	11
      000017 49                    6246 	.uleb128	73
      000018 13                    6247 	.uleb128	19
      000019 00                    6248 	.uleb128	0
      00001A 00                    6249 	.uleb128	0
      00001B 02                    6250 	.uleb128	2
      00001C 2E                    6251 	.uleb128	46
      00001D 01                    6252 	.db	1
      00001E 01                    6253 	.uleb128	1
      00001F 13                    6254 	.uleb128	19
      000020 03                    6255 	.uleb128	3
      000021 08                    6256 	.uleb128	8
      000022 11                    6257 	.uleb128	17
      000023 01                    6258 	.uleb128	1
      000024 12                    6259 	.uleb128	18
      000025 01                    6260 	.uleb128	1
      000026 3F                    6261 	.uleb128	63
      000027 0C                    6262 	.uleb128	12
      000028 40                    6263 	.uleb128	64
      000029 06                    6264 	.uleb128	6
      00002A 00                    6265 	.uleb128	0
      00002B 00                    6266 	.uleb128	0
      00002C 0A                    6267 	.uleb128	10
      00002D 34                    6268 	.uleb128	52
      00002E 00                    6269 	.db	0
      00002F 02                    6270 	.uleb128	2
      000030 0A                    6271 	.uleb128	10
      000031 03                    6272 	.uleb128	3
      000032 08                    6273 	.uleb128	8
      000033 49                    6274 	.uleb128	73
      000034 13                    6275 	.uleb128	19
      000035 00                    6276 	.uleb128	0
      000036 00                    6277 	.uleb128	0
      000037 0E                    6278 	.uleb128	14
      000038 2E                    6279 	.uleb128	46
      000039 01                    6280 	.db	1
      00003A 01                    6281 	.uleb128	1
      00003B 13                    6282 	.uleb128	19
      00003C 03                    6283 	.uleb128	3
      00003D 08                    6284 	.uleb128	8
      00003E 11                    6285 	.uleb128	17
      00003F 01                    6286 	.uleb128	1
      000040 12                    6287 	.uleb128	18
      000041 01                    6288 	.uleb128	1
      000042 3F                    6289 	.uleb128	63
      000043 0C                    6290 	.uleb128	12
      000044 40                    6291 	.uleb128	64
      000045 06                    6292 	.uleb128	6
      000046 49                    6293 	.uleb128	73
      000047 13                    6294 	.uleb128	19
      000048 00                    6295 	.uleb128	0
      000049 00                    6296 	.uleb128	0
      00004A 0B                    6297 	.uleb128	11
      00004B 0B                    6298 	.uleb128	11
      00004C 01                    6299 	.db	1
      00004D 01                    6300 	.uleb128	1
      00004E 13                    6301 	.uleb128	19
      00004F 00                    6302 	.uleb128	0
      000050 00                    6303 	.uleb128	0
      000051 06                    6304 	.uleb128	6
      000052 26                    6305 	.uleb128	38
      000053 00                    6306 	.db	0
      000054 49                    6307 	.uleb128	73
      000055 13                    6308 	.uleb128	19
      000056 00                    6309 	.uleb128	0
      000057 00                    6310 	.uleb128	0
      000058 0F                    6311 	.uleb128	15
      000059 0B                    6312 	.uleb128	11
      00005A 01                    6313 	.db	1
      00005B 11                    6314 	.uleb128	17
      00005C 01                    6315 	.uleb128	1
      00005D 00                    6316 	.uleb128	0
      00005E 00                    6317 	.uleb128	0
      00005F 01                    6318 	.uleb128	1
      000060 11                    6319 	.uleb128	17
      000061 01                    6320 	.db	1
      000062 03                    6321 	.uleb128	3
      000063 08                    6322 	.uleb128	8
      000064 10                    6323 	.uleb128	16
      000065 06                    6324 	.uleb128	6
      000066 13                    6325 	.uleb128	19
      000067 0B                    6326 	.uleb128	11
      000068 25                    6327 	.uleb128	37
      000069 08                    6328 	.uleb128	8
      00006A 00                    6329 	.uleb128	0
      00006B 00                    6330 	.uleb128	0
      00006C 04                    6331 	.uleb128	4
      00006D 0B                    6332 	.uleb128	11
      00006E 00                    6333 	.db	0
      00006F 11                    6334 	.uleb128	17
      000070 01                    6335 	.uleb128	1
      000071 12                    6336 	.uleb128	18
      000072 01                    6337 	.uleb128	1
      000073 00                    6338 	.uleb128	0
      000074 00                    6339 	.uleb128	0
      000075 07                    6340 	.uleb128	7
      000076 0B                    6341 	.uleb128	11
      000077 01                    6342 	.db	1
      000078 11                    6343 	.uleb128	17
      000079 01                    6344 	.uleb128	1
      00007A 12                    6345 	.uleb128	18
      00007B 01                    6346 	.uleb128	1
      00007C 00                    6347 	.uleb128	0
      00007D 00                    6348 	.uleb128	0
      00007E 08                    6349 	.uleb128	8
      00007F 0B                    6350 	.uleb128	11
      000080 01                    6351 	.db	1
      000081 01                    6352 	.uleb128	1
      000082 13                    6353 	.uleb128	19
      000083 11                    6354 	.uleb128	17
      000084 01                    6355 	.uleb128	1
      000085 00                    6356 	.uleb128	0
      000086 00                    6357 	.uleb128	0
      000087 0D                    6358 	.uleb128	13
      000088 2E                    6359 	.uleb128	46
      000089 00                    6360 	.db	0
      00008A 03                    6361 	.uleb128	3
      00008B 08                    6362 	.uleb128	8
      00008C 11                    6363 	.uleb128	17
      00008D 01                    6364 	.uleb128	1
      00008E 12                    6365 	.uleb128	18
      00008F 01                    6366 	.uleb128	1
      000090 3F                    6367 	.uleb128	63
      000091 0C                    6368 	.uleb128	12
      000092 40                    6369 	.uleb128	64
      000093 06                    6370 	.uleb128	6
      000094 00                    6371 	.uleb128	0
      000095 00                    6372 	.uleb128	0
      000096 09                    6373 	.uleb128	9
      000097 0B                    6374 	.uleb128	11
      000098 01                    6375 	.db	1
      000099 01                    6376 	.uleb128	1
      00009A 13                    6377 	.uleb128	19
      00009B 11                    6378 	.uleb128	17
      00009C 01                    6379 	.uleb128	1
      00009D 12                    6380 	.uleb128	18
      00009E 01                    6381 	.uleb128	1
      00009F 00                    6382 	.uleb128	0
      0000A0 00                    6383 	.uleb128	0
      0000A1 11                    6384 	.uleb128	17
      0000A2 21                    6385 	.uleb128	33
      0000A3 00                    6386 	.db	0
      0000A4 2F                    6387 	.uleb128	47
      0000A5 0B                    6388 	.uleb128	11
      0000A6 00                    6389 	.uleb128	0
      0000A7 00                    6390 	.uleb128	0
      0000A8 05                    6391 	.uleb128	5
      0000A9 24                    6392 	.uleb128	36
      0000AA 00                    6393 	.db	0
      0000AB 03                    6394 	.uleb128	3
      0000AC 08                    6395 	.uleb128	8
      0000AD 0B                    6396 	.uleb128	11
      0000AE 0B                    6397 	.uleb128	11
      0000AF 3E                    6398 	.uleb128	62
      0000B0 0B                    6399 	.uleb128	11
      0000B1 00                    6400 	.uleb128	0
      0000B2 00                    6401 	.uleb128	0
      0000B3 00                    6402 	.uleb128	0
                                   6403 
                                   6404 	.area .debug_info (NOLOAD)
      000000 00 00 05 F1           6405 	.dw	0,Ldebug_info_end-Ldebug_info_start
      000004                       6406 Ldebug_info_start:
      000004 00 02                 6407 	.dw	2
      000006 00 00 00 00           6408 	.dw	0,(Ldebug_abbrev)
      00000A 04                    6409 	.db	4
      00000B 01                    6410 	.uleb128	1
      00000C 2E 2F 73 72 63 2F 6D  6411 	.ascii "./src/main.c"
             61 69 6E 2E 63
      000018 00                    6412 	.db	0
      000019 00 00 00 00           6413 	.dw	0,(Ldebug_line_start+-4)
      00001D 01                    6414 	.db	1
      00001E 53 44 43 43 20 76 65  6415 	.ascii "SDCC version 4.1.0 #12072"
             72 73 69 6F 6E 20 34
             2E 31 2E 30 20 23 31
             32 30 37 32
      000037 00                    6416 	.db	0
      000038 02                    6417 	.uleb128	2
      000039 00 00 00 70           6418 	.dw	0,112
      00003D 5F 64 65 6C 61 79 5F  6419 	.ascii "_delay_cycl"
             63 79 63 6C
      000048 00                    6420 	.db	0
      000049 00 00 80 FD           6421 	.dw	0,(__delay_cycl)
      00004D 00 00 81 0A           6422 	.dw	0,(XFmain$_delay_cycl$0$0+1)
      000051 00                    6423 	.db	0
      000052 00 00 14 C0           6424 	.dw	0,(Ldebug_loc_start+5312)
      000056 03                    6425 	.uleb128	3
      000057 02                    6426 	.db	2
      000058 91                    6427 	.db	145
      000059 02                    6428 	.sleb128	2
      00005A 5F 5F 74 69 63 6B 73  6429 	.ascii "__ticks"
      000061 00                    6430 	.db	0
      000062 00 00 00 70           6431 	.dw	0,112
      000066 04                    6432 	.uleb128	4
      000067 00 00 81 01           6433 	.dw	0,(Smain$_delay_cycl$4)
      00006B 00 00 81 02           6434 	.dw	0,(Smain$_delay_cycl$6)
      00006F 00                    6435 	.uleb128	0
      000070 05                    6436 	.uleb128	5
      000071 75 6E 73 69 67 6E 65  6437 	.ascii "unsigned int"
             64 20 69 6E 74
      00007D 00                    6438 	.db	0
      00007E 02                    6439 	.db	2
      00007F 07                    6440 	.db	7
      000080 02                    6441 	.uleb128	2
      000081 00 00 01 07           6442 	.dw	0,263
      000085 5F 64 65 6C 61 79 5F  6443 	.ascii "_delay_us"
             75 73
      00008E 00                    6444 	.db	0
      00008F 00 00 81 0A           6445 	.dw	0,(__delay_us)
      000093 00 00 81 42           6446 	.dw	0,(XFmain$_delay_us$0$0+1)
      000097 00                    6447 	.db	0
      000098 00 00 14 04           6448 	.dw	0,(Ldebug_loc_start+5124)
      00009C 06                    6449 	.uleb128	6
      00009D 00 00 00 70           6450 	.dw	0,112
      0000A1 03                    6451 	.uleb128	3
      0000A2 02                    6452 	.db	2
      0000A3 91                    6453 	.db	145
      0000A4 02                    6454 	.sleb128	2
      0000A5 5F 5F 75 73           6455 	.ascii "__us"
      0000A9 00                    6456 	.db	0
      0000AA 00 00 00 9C           6457 	.dw	0,156
      0000AE 07                    6458 	.uleb128	7
      0000AF 00 00 81 0A           6459 	.dw	0,(Smain$_delay_us$14)
      0000B3 00 00 81 36           6460 	.dw	0,(Smain$_delay_us$31)
      0000B7 08                    6461 	.uleb128	8
      0000B8 00 00 00 EC           6462 	.dw	0,236
      0000BC 00 00 81 37           6463 	.dw	0,(Smain$_delay_us$32)
      0000C0 09                    6464 	.uleb128	9
      0000C1 00 00 00 D7           6465 	.dw	0,215
      0000C5 00 00 81 37           6466 	.dw	0,(Smain$_delay_us$33)
      0000C9 00 00 81 41           6467 	.dw	0,(Smain$_delay_us$38)
      0000CD 04                    6468 	.uleb128	4
      0000CE 00 00 81 39           6469 	.dw	0,(Smain$_delay_us$36)
      0000D2 00 00 81 3A           6470 	.dw	0,(Smain$_delay_us$37)
      0000D6 00                    6471 	.uleb128	0
      0000D7 0A                    6472 	.uleb128	10
      0000D8 06                    6473 	.db	6
      0000D9 52                    6474 	.db	82
      0000DA 93                    6475 	.db	147
      0000DB 01                    6476 	.uleb128	1
      0000DC 51                    6477 	.db	81
      0000DD 93                    6478 	.db	147
      0000DE 01                    6479 	.uleb128	1
      0000DF 5F 5F 74 69 63 6B 73  6480 	.ascii "__ticks"
      0000E6 00                    6481 	.db	0
      0000E7 00 00 00 70           6482 	.dw	0,112
      0000EB 00                    6483 	.uleb128	0
      0000EC 0A                    6484 	.uleb128	10
      0000ED 06                    6485 	.db	6
      0000EE 52                    6486 	.db	82
      0000EF 93                    6487 	.db	147
      0000F0 01                    6488 	.uleb128	1
      0000F1 51                    6489 	.db	81
      0000F2 93                    6490 	.db	147
      0000F3 01                    6491 	.uleb128	1
      0000F4 5F 5F 31 33 31 30 37  6492 	.ascii "__1310720010"
             32 30 30 31 30
      000100 00                    6493 	.db	0
      000101 00 00 00 70           6494 	.dw	0,112
      000105 00                    6495 	.uleb128	0
      000106 00                    6496 	.uleb128	0
      000107 02                    6497 	.uleb128	2
      000108 00 00 03 3A           6498 	.dw	0,826
      00010C 64 65 6C 61 79 5F 6D  6499 	.ascii "delay_ms"
             73
      000114 00                    6500 	.db	0
      000115 00 00 81 42           6501 	.dw	0,(_delay_ms)
      000119 00 00 81 8D           6502 	.dw	0,(XG$delay_ms$0$0+1)
      00011D 01                    6503 	.db	1
      00011E 00 00 13 D8           6504 	.dw	0,(Ldebug_loc_start+5080)
      000122 03                    6505 	.uleb128	3
      000123 02                    6506 	.db	2
      000124 91                    6507 	.db	145
      000125 02                    6508 	.sleb128	2
      000126 6D 73                 6509 	.ascii "ms"
      000128 00                    6510 	.db	0
      000129 00 00 00 70           6511 	.dw	0,112
      00012D 0B                    6512 	.uleb128	11
      00012E 00 00 03 2F           6513 	.dw	0,815
      000132 0B                    6514 	.uleb128	11
      000133 00 00 01 B2           6515 	.dw	0,434
      000137 0B                    6516 	.uleb128	11
      000138 00 00 01 9C           6517 	.dw	0,412
      00013C 0B                    6518 	.uleb128	11
      00013D 00 00 01 8E           6519 	.dw	0,398
      000141 0C                    6520 	.uleb128	12
      000142 08                    6521 	.uleb128	8
      000143 00 00 01 77           6522 	.dw	0,375
      000147 00 00 81 4F           6523 	.dw	0,(Smain$delay_ms$47)
      00014B 09                    6524 	.uleb128	9
      00014C 00 00 01 62           6525 	.dw	0,354
      000150 00 00 81 52           6526 	.dw	0,(Smain$delay_ms$48)
      000154 00 00 81 5C           6527 	.dw	0,(Smain$delay_ms$53)
      000158 04                    6528 	.uleb128	4
      000159 00 00 81 54           6529 	.dw	0,(Smain$delay_ms$51)
      00015D 00 00 81 55           6530 	.dw	0,(Smain$delay_ms$52)
      000161 00                    6531 	.uleb128	0
      000162 0A                    6532 	.uleb128	10
      000163 06                    6533 	.db	6
      000164 52                    6534 	.db	82
      000165 93                    6535 	.db	147
      000166 01                    6536 	.uleb128	1
      000167 51                    6537 	.db	81
      000168 93                    6538 	.db	147
      000169 01                    6539 	.uleb128	1
      00016A 5F 5F 74 69 63 6B 73  6540 	.ascii "__ticks"
      000171 00                    6541 	.db	0
      000172 00 00 00 70           6542 	.dw	0,112
      000176 00                    6543 	.uleb128	0
      000177 0A                    6544 	.uleb128	10
      000178 02                    6545 	.db	2
      000179 91                    6546 	.db	145
      00017A 00                    6547 	.sleb128	0
      00017B 5F 5F 31 33 31 30 37  6548 	.ascii "__1310720010"
             32 30 30 31 30
      000187 00                    6549 	.db	0
      000188 00 00 00 70           6550 	.dw	0,112
      00018C 00                    6551 	.uleb128	0
      00018D 00                    6552 	.uleb128	0
      00018E 0A                    6553 	.uleb128	10
      00018F 02                    6554 	.db	2
      000190 91                    6555 	.db	145
      000191 00                    6556 	.sleb128	0
      000192 5F 5F 75 73           6557 	.ascii "__us"
      000196 00                    6558 	.db	0
      000197 00 00 00 9C           6559 	.dw	0,156
      00019B 00                    6560 	.uleb128	0
      00019C 0A                    6561 	.uleb128	10
      00019D 02                    6562 	.db	2
      00019E 91                    6563 	.db	145
      00019F 00                    6564 	.sleb128	0
      0001A0 5F 5F 32 36 32 31 34  6565 	.ascii "__2621440012"
             34 30 30 31 32
      0001AC 00                    6566 	.db	0
      0001AD 00 00 00 9C           6567 	.dw	0,156
      0001B1 00                    6568 	.uleb128	0
      0001B2 0B                    6569 	.uleb128	11
      0001B3 00 00 02 32           6570 	.dw	0,562
      0001B7 0B                    6571 	.uleb128	11
      0001B8 00 00 02 1C           6572 	.dw	0,540
      0001BC 0B                    6573 	.uleb128	11
      0001BD 00 00 02 0E           6574 	.dw	0,526
      0001C1 0C                    6575 	.uleb128	12
      0001C2 08                    6576 	.uleb128	8
      0001C3 00 00 01 F7           6577 	.dw	0,503
      0001C7 00 00 81 5C           6578 	.dw	0,(Smain$delay_ms$53)
      0001CB 09                    6579 	.uleb128	9
      0001CC 00 00 01 E2           6580 	.dw	0,482
      0001D0 00 00 81 5F           6581 	.dw	0,(Smain$delay_ms$54)
      0001D4 00 00 81 69           6582 	.dw	0,(Smain$delay_ms$59)
      0001D8 04                    6583 	.uleb128	4
      0001D9 00 00 81 61           6584 	.dw	0,(Smain$delay_ms$57)
      0001DD 00 00 81 62           6585 	.dw	0,(Smain$delay_ms$58)
      0001E1 00                    6586 	.uleb128	0
      0001E2 0A                    6587 	.uleb128	10
      0001E3 06                    6588 	.db	6
      0001E4 52                    6589 	.db	82
      0001E5 93                    6590 	.db	147
      0001E6 01                    6591 	.uleb128	1
      0001E7 51                    6592 	.db	81
      0001E8 93                    6593 	.db	147
      0001E9 01                    6594 	.uleb128	1
      0001EA 5F 5F 74 69 63 6B 73  6595 	.ascii "__ticks"
      0001F1 00                    6596 	.db	0
      0001F2 00 00 00 70           6597 	.dw	0,112
      0001F6 00                    6598 	.uleb128	0
      0001F7 0A                    6599 	.uleb128	10
      0001F8 02                    6600 	.db	2
      0001F9 91                    6601 	.db	145
      0001FA 00                    6602 	.sleb128	0
      0001FB 5F 5F 31 33 31 30 37  6603 	.ascii "__1310720010"
             32 30 30 31 30
      000207 00                    6604 	.db	0
      000208 00 00 00 70           6605 	.dw	0,112
      00020C 00                    6606 	.uleb128	0
      00020D 00                    6607 	.uleb128	0
      00020E 0A                    6608 	.uleb128	10
      00020F 02                    6609 	.db	2
      000210 91                    6610 	.db	145
      000211 00                    6611 	.sleb128	0
      000212 5F 5F 75 73           6612 	.ascii "__us"
      000216 00                    6613 	.db	0
      000217 00 00 00 9C           6614 	.dw	0,156
      00021B 00                    6615 	.uleb128	0
      00021C 0A                    6616 	.uleb128	10
      00021D 02                    6617 	.db	2
      00021E 91                    6618 	.db	145
      00021F 00                    6619 	.sleb128	0
      000220 5F 5F 32 36 32 31 34  6620 	.ascii "__2621440014"
             34 30 30 31 34
      00022C 00                    6621 	.db	0
      00022D 00 00 00 9C           6622 	.dw	0,156
      000231 00                    6623 	.uleb128	0
      000232 0B                    6624 	.uleb128	11
      000233 00 00 02 B2           6625 	.dw	0,690
      000237 0B                    6626 	.uleb128	11
      000238 00 00 02 9C           6627 	.dw	0,668
      00023C 0B                    6628 	.uleb128	11
      00023D 00 00 02 8E           6629 	.dw	0,654
      000241 0C                    6630 	.uleb128	12
      000242 08                    6631 	.uleb128	8
      000243 00 00 02 77           6632 	.dw	0,631
      000247 00 00 81 69           6633 	.dw	0,(Smain$delay_ms$59)
      00024B 09                    6634 	.uleb128	9
      00024C 00 00 02 62           6635 	.dw	0,610
      000250 00 00 81 6C           6636 	.dw	0,(Smain$delay_ms$60)
      000254 00 00 81 76           6637 	.dw	0,(Smain$delay_ms$65)
      000258 04                    6638 	.uleb128	4
      000259 00 00 81 6E           6639 	.dw	0,(Smain$delay_ms$63)
      00025D 00 00 81 6F           6640 	.dw	0,(Smain$delay_ms$64)
      000261 00                    6641 	.uleb128	0
      000262 0A                    6642 	.uleb128	10
      000263 06                    6643 	.db	6
      000264 52                    6644 	.db	82
      000265 93                    6645 	.db	147
      000266 01                    6646 	.uleb128	1
      000267 51                    6647 	.db	81
      000268 93                    6648 	.db	147
      000269 01                    6649 	.uleb128	1
      00026A 5F 5F 74 69 63 6B 73  6650 	.ascii "__ticks"
      000271 00                    6651 	.db	0
      000272 00 00 00 70           6652 	.dw	0,112
      000276 00                    6653 	.uleb128	0
      000277 0A                    6654 	.uleb128	10
      000278 02                    6655 	.db	2
      000279 91                    6656 	.db	145
      00027A 00                    6657 	.sleb128	0
      00027B 5F 5F 31 33 31 30 37  6658 	.ascii "__1310720010"
             32 30 30 31 30
      000287 00                    6659 	.db	0
      000288 00 00 00 70           6660 	.dw	0,112
      00028C 00                    6661 	.uleb128	0
      00028D 00                    6662 	.uleb128	0
      00028E 0A                    6663 	.uleb128	10
      00028F 02                    6664 	.db	2
      000290 91                    6665 	.db	145
      000291 00                    6666 	.sleb128	0
      000292 5F 5F 75 73           6667 	.ascii "__us"
      000296 00                    6668 	.db	0
      000297 00 00 00 9C           6669 	.dw	0,156
      00029B 00                    6670 	.uleb128	0
      00029C 0A                    6671 	.uleb128	10
      00029D 02                    6672 	.db	2
      00029E 91                    6673 	.db	145
      00029F 00                    6674 	.sleb128	0
      0002A0 5F 5F 32 36 32 31 34  6675 	.ascii "__2621440016"
             34 30 30 31 36
      0002AC 00                    6676 	.db	0
      0002AD 00 00 00 9C           6677 	.dw	0,156
      0002B1 00                    6678 	.uleb128	0
      0002B2 0C                    6679 	.uleb128	12
      0002B3 0B                    6680 	.uleb128	11
      0002B4 00 00 03 18           6681 	.dw	0,792
      0002B8 0B                    6682 	.uleb128	11
      0002B9 00 00 03 0A           6683 	.dw	0,778
      0002BD 0C                    6684 	.uleb128	12
      0002BE 08                    6685 	.uleb128	8
      0002BF 00 00 02 F3           6686 	.dw	0,755
      0002C3 00 00 81 76           6687 	.dw	0,(Smain$delay_ms$65)
      0002C7 09                    6688 	.uleb128	9
      0002C8 00 00 02 DE           6689 	.dw	0,734
      0002CC 00 00 81 79           6690 	.dw	0,(Smain$delay_ms$66)
      0002D0 00 00 81 83           6691 	.dw	0,(Smain$delay_ms$71)
      0002D4 04                    6692 	.uleb128	4
      0002D5 00 00 81 7B           6693 	.dw	0,(Smain$delay_ms$69)
      0002D9 00 00 81 7C           6694 	.dw	0,(Smain$delay_ms$70)
      0002DD 00                    6695 	.uleb128	0
      0002DE 0A                    6696 	.uleb128	10
      0002DF 06                    6697 	.db	6
      0002E0 52                    6698 	.db	82
      0002E1 93                    6699 	.db	147
      0002E2 01                    6700 	.uleb128	1
      0002E3 51                    6701 	.db	81
      0002E4 93                    6702 	.db	147
      0002E5 01                    6703 	.uleb128	1
      0002E6 5F 5F 74 69 63 6B 73  6704 	.ascii "__ticks"
      0002ED 00                    6705 	.db	0
      0002EE 00 00 00 70           6706 	.dw	0,112
      0002F2 00                    6707 	.uleb128	0
      0002F3 0A                    6708 	.uleb128	10
      0002F4 02                    6709 	.db	2
      0002F5 91                    6710 	.db	145
      0002F6 00                    6711 	.sleb128	0
      0002F7 5F 5F 31 33 31 30 37  6712 	.ascii "__1310720010"
             32 30 30 31 30
      000303 00                    6713 	.db	0
      000304 00 00 00 70           6714 	.dw	0,112
      000308 00                    6715 	.uleb128	0
      000309 00                    6716 	.uleb128	0
      00030A 0A                    6717 	.uleb128	10
      00030B 02                    6718 	.db	2
      00030C 91                    6719 	.db	145
      00030D 00                    6720 	.sleb128	0
      00030E 5F 5F 75 73           6721 	.ascii "__us"
      000312 00                    6722 	.db	0
      000313 00 00 00 9C           6723 	.dw	0,156
      000317 00                    6724 	.uleb128	0
      000318 0A                    6725 	.uleb128	10
      000319 02                    6726 	.db	2
      00031A 91                    6727 	.db	145
      00031B 00                    6728 	.sleb128	0
      00031C 5F 5F 32 36 32 31 34  6729 	.ascii "__2621440018"
             34 30 30 31 38
      000328 00                    6730 	.db	0
      000329 00 00 00 9C           6731 	.dw	0,156
      00032D 00                    6732 	.uleb128	0
      00032E 00                    6733 	.uleb128	0
      00032F 0A                    6734 	.uleb128	10
      000330 02                    6735 	.db	2
      000331 91                    6736 	.db	145
      000332 7E                    6737 	.sleb128	-2
      000333 69                    6738 	.ascii "i"
      000334 00                    6739 	.db	0
      000335 00 00 00 70           6740 	.dw	0,112
      000339 00                    6741 	.uleb128	0
      00033A 0D                    6742 	.uleb128	13
      00033B 73 65 74 75 70        6743 	.ascii "setup"
      000340 00                    6744 	.db	0
      000341 00 00 81 8D           6745 	.dw	0,(_setup)
      000345 00 00 81 DF           6746 	.dw	0,(XG$setup$0$0+1)
      000349 01                    6747 	.db	1
      00034A 00 00 12 8C           6748 	.dw	0,(Ldebug_loc_start+4748)
      00034E 05                    6749 	.uleb128	5
      00034F 69 6E 74              6750 	.ascii "int"
      000352 00                    6751 	.db	0
      000353 02                    6752 	.db	2
      000354 05                    6753 	.db	5
      000355 0E                    6754 	.uleb128	14
      000356 00 00 04 AB           6755 	.dw	0,1195
      00035A 6D 61 69 6E           6756 	.ascii "main"
      00035E 00                    6757 	.db	0
      00035F 00 00 81 DF           6758 	.dw	0,(_main)
      000363 00 00 87 F1           6759 	.dw	0,(XG$main$0$0+1)
      000367 01                    6760 	.db	1
      000368 00 00 00 00           6761 	.dw	0,(Ldebug_loc_start)
      00036C 00 00 03 4E           6762 	.dw	0,846
      000370 09                    6763 	.uleb128	9
      000371 00 00 04 29           6764 	.dw	0,1065
      000375 00 00 81 F2           6765 	.dw	0,(Smain$main$126)
      000379 00 00 82 6C           6766 	.dw	0,(Smain$main$178)
      00037D 04                    6767 	.uleb128	4
      00037E 00 00 82 78           6768 	.dw	0,(Smain$main$180)
      000382 00 00 82 9D           6769 	.dw	0,(Smain$main$194)
      000386 04                    6770 	.uleb128	4
      000387 00 00 82 B1           6771 	.dw	0,(Smain$main$196)
      00038B 00 00 82 D6           6772 	.dw	0,(Smain$main$210)
      00038F 04                    6773 	.uleb128	4
      000390 00 00 82 E0           6774 	.dw	0,(Smain$main$212)
      000394 00 00 83 05           6775 	.dw	0,(Smain$main$226)
      000398 07                    6776 	.uleb128	7
      000399 00 00 83 1D           6777 	.dw	0,(Smain$main$232)
      00039D 00 00 87 EB           6778 	.dw	0,(Smain$main$713)
      0003A1 04                    6779 	.uleb128	4
      0003A2 00 00 83 39           6780 	.dw	0,(Smain$main$243)
      0003A6 00 00 83 56           6781 	.dw	0,(Smain$main$256)
      0003AA 04                    6782 	.uleb128	4
      0003AB 00 00 83 6F           6783 	.dw	0,(Smain$main$260)
      0003AF 00 00 83 8C           6784 	.dw	0,(Smain$main$273)
      0003B3 04                    6785 	.uleb128	4
      0003B4 00 00 83 A3           6786 	.dw	0,(Smain$main$277)
      0003B8 00 00 83 C0           6787 	.dw	0,(Smain$main$290)
      0003BC 08                    6788 	.uleb128	8
      0003BD 00 00 03 E1           6789 	.dw	0,993
      0003C1 00 00 84 41           6790 	.dw	0,(Smain$main$325)
      0003C5 04                    6791 	.uleb128	4
      0003C6 00 00 84 48           6792 	.dw	0,(Smain$main$327)
      0003CA 00 00 84 82           6793 	.dw	0,(Smain$main$352)
      0003CE 04                    6794 	.uleb128	4
      0003CF 00 00 84 89           6795 	.dw	0,(Smain$main$354)
      0003D3 00 00 85 06           6796 	.dw	0,(Smain$main$407)
      0003D7 04                    6797 	.uleb128	4
      0003D8 00 00 85 0D           6798 	.dw	0,(Smain$main$409)
      0003DC 00 00 85 6C           6799 	.dw	0,(Smain$main$448)
      0003E0 00                    6800 	.uleb128	0
      0003E1 08                    6801 	.uleb128	8
      0003E2 00 00 04 06           6802 	.dw	0,1030
      0003E6 00 00 85 73           6803 	.dw	0,(Smain$main$450)
      0003EA 04                    6804 	.uleb128	4
      0003EB 00 00 85 7A           6805 	.dw	0,(Smain$main$452)
      0003EF 00 00 85 D9           6806 	.dw	0,(Smain$main$491)
      0003F3 04                    6807 	.uleb128	4
      0003F4 00 00 85 E0           6808 	.dw	0,(Smain$main$493)
      0003F8 00 00 86 1A           6809 	.dw	0,(Smain$main$518)
      0003FC 04                    6810 	.uleb128	4
      0003FD 00 00 86 21           6811 	.dw	0,(Smain$main$520)
      000401 00 00 86 9E           6812 	.dw	0,(Smain$main$573)
      000405 00                    6813 	.uleb128	0
      000406 0F                    6814 	.uleb128	15
      000407 00 00 86 A5           6815 	.dw	0,(Smain$main$575)
      00040B 04                    6816 	.uleb128	4
      00040C 00 00 86 AC           6817 	.dw	0,(Smain$main$577)
      000410 00 00 87 29           6818 	.dw	0,(Smain$main$630)
      000414 04                    6819 	.uleb128	4
      000415 00 00 87 30           6820 	.dw	0,(Smain$main$632)
      000419 00 00 87 8F           6821 	.dw	0,(Smain$main$671)
      00041D 04                    6822 	.uleb128	4
      00041E 00 00 87 96           6823 	.dw	0,(Smain$main$673)
      000422 00 00 87 D0           6824 	.dw	0,(Smain$main$698)
      000426 00                    6825 	.uleb128	0
      000427 00                    6826 	.uleb128	0
      000428 00                    6827 	.uleb128	0
      000429 0A                    6828 	.uleb128	10
      00042A 02                    6829 	.db	2
      00042B 91                    6830 	.db	145
      00042C 75                    6831 	.sleb128	-11
      00042D 73 74 61 76 74 79     6832 	.ascii "stavty"
      000433 00                    6833 	.db	0
      000434 00 00 04 AB           6834 	.dw	0,1195
      000438 0A                    6835 	.uleb128	10
      000439 06                    6836 	.db	6
      00043A 52                    6837 	.db	82
      00043B 93                    6838 	.db	147
      00043C 01                    6839 	.uleb128	1
      00043D 51                    6840 	.db	81
      00043E 93                    6841 	.db	147
      00043F 01                    6842 	.uleb128	1
      000440 41 44 43 78           6843 	.ascii "ADCx"
      000444 00                    6844 	.db	0
      000445 00 00 00 70           6845 	.dw	0,112
      000449 0A                    6846 	.uleb128	10
      00044A 02                    6847 	.db	2
      00044B 91                    6848 	.db	145
      00044C 79                    6849 	.sleb128	-7
      00044D 72 61 6E 64 6F 6D     6850 	.ascii "random"
      000453 00                    6851 	.db	0
      000454 00 00 00 70           6852 	.dw	0,112
      000458 0A                    6853 	.uleb128	10
      000459 02                    6854 	.db	2
      00045A 91                    6855 	.db	145
      00045B 7C                    6856 	.sleb128	-4
      00045C 78                    6857 	.ascii "x"
      00045D 00                    6858 	.db	0
      00045E 00 00 00 70           6859 	.dw	0,112
      000462 10                    6860 	.uleb128	16
      000463 00 00 04 6F           6861 	.dw	0,1135
      000467 20                    6862 	.db	32
      000468 00 00 04 BC           6863 	.dw	0,1212
      00046C 11                    6864 	.uleb128	17
      00046D 1F                    6865 	.db	31
      00046E 00                    6866 	.uleb128	0
      00046F 0A                    6867 	.uleb128	10
      000470 02                    6868 	.db	2
      000471 91                    6869 	.db	145
      000472 51                    6870 	.sleb128	-47
      000473 74 65 78 74           6871 	.ascii "text"
      000477 00                    6872 	.db	0
      000478 00 00 04 62           6873 	.dw	0,1122
      00047C 0A                    6874 	.uleb128	10
      00047D 02                    6875 	.db	2
      00047E 91                    6876 	.db	145
      00047F 54                    6877 	.sleb128	-44
      000480 72 65 6D 69 7A 61     6878 	.ascii "remiza"
      000486 00                    6879 	.db	0
      000487 00 00 00 70           6880 	.dw	0,112
      00048B 0A                    6881 	.uleb128	10
      00048C 02                    6882 	.db	2
      00048D 91                    6883 	.db	145
      00048E 73                    6884 	.sleb128	-13
      00048F 62 6F 64 79 74 79     6885 	.ascii "bodyty"
      000495 00                    6886 	.db	0
      000496 00 00 00 70           6887 	.dw	0,112
      00049A 0A                    6888 	.uleb128	10
      00049B 02                    6889 	.db	2
      00049C 91                    6890 	.db	145
      00049D 71                    6891 	.sleb128	-15
      00049E 62 6F 64 79 73 74 6D  6892 	.ascii "bodystm"
      0004A5 00                    6893 	.db	0
      0004A6 00 00 00 70           6894 	.dw	0,112
      0004AA 00                    6895 	.uleb128	0
      0004AB 05                    6896 	.uleb128	5
      0004AC 75 6E 73 69 67 6E 65  6897 	.ascii "unsigned long"
             64 20 6C 6F 6E 67
      0004B9 00                    6898 	.db	0
      0004BA 04                    6899 	.db	4
      0004BB 07                    6900 	.db	7
      0004BC 05                    6901 	.uleb128	5
      0004BD 75 6E 73 69 67 6E 65  6902 	.ascii "unsigned char"
             64 20 63 68 61 72
      0004CA 00                    6903 	.db	0
      0004CB 01                    6904 	.db	1
      0004CC 08                    6905 	.db	8
      0004CD 06                    6906 	.uleb128	6
      0004CE 00 00 04 BC           6907 	.dw	0,1212
      0004D2 10                    6908 	.uleb128	16
      0004D3 00 00 04 DF           6909 	.dw	0,1247
      0004D7 0C                    6910 	.db	12
      0004D8 00 00 04 CD           6911 	.dw	0,1229
      0004DC 11                    6912 	.uleb128	17
      0004DD 0B                    6913 	.db	11
      0004DE 00                    6914 	.uleb128	0
      0004DF 0A                    6915 	.uleb128	10
      0004E0 05                    6916 	.db	5
      0004E1 03                    6917 	.db	3
      0004E2 00 00 80 8C           6918 	.dw	0,(___str_0)
      0004E6 5F 5F 73 74 72 5F 30  6919 	.ascii "__str_0"
      0004ED 00                    6920 	.db	0
      0004EE 00 00 04 D2           6921 	.dw	0,1234
      0004F2 0A                    6922 	.uleb128	10
      0004F3 05                    6923 	.db	5
      0004F4 03                    6924 	.db	3
      0004F5 00 00 80 98           6925 	.dw	0,(___str_1)
      0004F9 5F 5F 73 74 72 5F 31  6926 	.ascii "__str_1"
      000500 00                    6927 	.db	0
      000501 00 00 04 D2           6928 	.dw	0,1234
      000505 10                    6929 	.uleb128	16
      000506 00 00 05 12           6930 	.dw	0,1298
      00050A 09                    6931 	.db	9
      00050B 00 00 04 CD           6932 	.dw	0,1229
      00050F 11                    6933 	.uleb128	17
      000510 08                    6934 	.db	8
      000511 00                    6935 	.uleb128	0
      000512 0A                    6936 	.uleb128	10
      000513 05                    6937 	.db	5
      000514 03                    6938 	.db	3
      000515 00 00 80 A4           6939 	.dw	0,(___str_2)
      000519 5F 5F 73 74 72 5F 32  6940 	.ascii "__str_2"
      000520 00                    6941 	.db	0
      000521 00 00 05 05           6942 	.dw	0,1285
      000525 10                    6943 	.uleb128	16
      000526 00 00 05 32           6944 	.dw	0,1330
      00052A 0B                    6945 	.db	11
      00052B 00 00 04 CD           6946 	.dw	0,1229
      00052F 11                    6947 	.uleb128	17
      000530 0A                    6948 	.db	10
      000531 00                    6949 	.uleb128	0
      000532 0A                    6950 	.uleb128	10
      000533 05                    6951 	.db	5
      000534 03                    6952 	.db	3
      000535 00 00 80 AD           6953 	.dw	0,(___str_3)
      000539 5F 5F 73 74 72 5F 33  6954 	.ascii "__str_3"
      000540 00                    6955 	.db	0
      000541 00 00 05 25           6956 	.dw	0,1317
      000545 10                    6957 	.uleb128	16
      000546 00 00 05 52           6958 	.dw	0,1362
      00054A 06                    6959 	.db	6
      00054B 00 00 04 CD           6960 	.dw	0,1229
      00054F 11                    6961 	.uleb128	17
      000550 05                    6962 	.db	5
      000551 00                    6963 	.uleb128	0
      000552 0A                    6964 	.uleb128	10
      000553 05                    6965 	.db	5
      000554 03                    6966 	.db	3
      000555 00 00 80 B8           6967 	.dw	0,(___str_4)
      000559 5F 5F 73 74 72 5F 34  6968 	.ascii "__str_4"
      000560 00                    6969 	.db	0
      000561 00 00 05 45           6970 	.dw	0,1349
      000565 0A                    6971 	.uleb128	10
      000566 05                    6972 	.db	5
      000567 03                    6973 	.db	3
      000568 00 00 80 BE           6974 	.dw	0,(___str_5)
      00056C 5F 5F 73 74 72 5F 35  6975 	.ascii "__str_5"
      000573 00                    6976 	.db	0
      000574 00 00 05 45           6977 	.dw	0,1349
      000578 0A                    6978 	.uleb128	10
      000579 05                    6979 	.db	5
      00057A 03                    6980 	.db	3
      00057B 00 00 80 C4           6981 	.dw	0,(___str_6)
      00057F 5F 5F 73 74 72 5F 36  6982 	.ascii "__str_6"
      000586 00                    6983 	.db	0
      000587 00 00 05 45           6984 	.dw	0,1349
      00058B 10                    6985 	.uleb128	16
      00058C 00 00 05 98           6986 	.dw	0,1432
      000590 04                    6987 	.db	4
      000591 00 00 04 CD           6988 	.dw	0,1229
      000595 11                    6989 	.uleb128	17
      000596 03                    6990 	.db	3
      000597 00                    6991 	.uleb128	0
      000598 0A                    6992 	.uleb128	10
      000599 05                    6993 	.db	5
      00059A 03                    6994 	.db	3
      00059B 00 00 80 CA           6995 	.dw	0,(___str_7)
      00059F 5F 5F 73 74 72 5F 37  6996 	.ascii "__str_7"
      0005A6 00                    6997 	.db	0
      0005A7 00 00 05 8B           6998 	.dw	0,1419
      0005AB 10                    6999 	.uleb128	16
      0005AC 00 00 05 B8           7000 	.dw	0,1464
      0005B0 07                    7001 	.db	7
      0005B1 00 00 04 CD           7002 	.dw	0,1229
      0005B5 11                    7003 	.uleb128	17
      0005B6 06                    7004 	.db	6
      0005B7 00                    7005 	.uleb128	0
      0005B8 0A                    7006 	.uleb128	10
      0005B9 05                    7007 	.db	5
      0005BA 03                    7008 	.db	3
      0005BB 00 00 80 CE           7009 	.dw	0,(___str_8)
      0005BF 5F 5F 73 74 72 5F 38  7010 	.ascii "__str_8"
      0005C6 00                    7011 	.db	0
      0005C7 00 00 05 AB           7012 	.dw	0,1451
      0005CB 0A                    7013 	.uleb128	10
      0005CC 05                    7014 	.db	5
      0005CD 03                    7015 	.db	3
      0005CE 00 00 80 D5           7016 	.dw	0,(___str_9)
      0005D2 5F 5F 73 74 72 5F 39  7017 	.ascii "__str_9"
      0005D9 00                    7018 	.db	0
      0005DA 00 00 05 AB           7019 	.dw	0,1451
      0005DE 0A                    7020 	.uleb128	10
      0005DF 05                    7021 	.db	5
      0005E0 03                    7022 	.db	3
      0005E1 00 00 80 DC           7023 	.dw	0,(___str_10)
      0005E5 5F 5F 73 74 72 5F 31  7024 	.ascii "__str_10"
             30
      0005ED 00                    7025 	.db	0
      0005EE 00 00 05 45           7026 	.dw	0,1349
      0005F2 00                    7027 	.uleb128	0
      0005F3 00                    7028 	.uleb128	0
      0005F4 00                    7029 	.uleb128	0
      0005F5                       7030 Ldebug_info_end:
                                   7031 
                                   7032 	.area .debug_pubnames (NOLOAD)
      000000 00 00 00 2E           7033 	.dw	0,Ldebug_pubnames_end-Ldebug_pubnames_start
      000004                       7034 Ldebug_pubnames_start:
      000004 00 02                 7035 	.dw	2
      000006 00 00 00 00           7036 	.dw	0,(Ldebug_info_start-4)
      00000A 00 00 05 F5           7037 	.dw	0,4+Ldebug_info_end-Ldebug_info_start
      00000E 00 00 01 07           7038 	.dw	0,263
      000012 64 65 6C 61 79 5F 6D  7039 	.ascii "delay_ms"
             73
      00001A 00                    7040 	.db	0
      00001B 00 00 03 3A           7041 	.dw	0,826
      00001F 73 65 74 75 70        7042 	.ascii "setup"
      000024 00                    7043 	.db	0
      000025 00 00 03 55           7044 	.dw	0,853
      000029 6D 61 69 6E           7045 	.ascii "main"
      00002D 00                    7046 	.db	0
      00002E 00 00 00 00           7047 	.dw	0,0
      000032                       7048 Ldebug_pubnames_end:
                                   7049 
                                   7050 	.area .debug_frame (NOLOAD)
      000000 00 00                 7051 	.dw	0
      000002 00 0E                 7052 	.dw	Ldebug_CIE0_end-Ldebug_CIE0_start
      000004                       7053 Ldebug_CIE0_start:
      000004 FF FF                 7054 	.dw	0xffff
      000006 FF FF                 7055 	.dw	0xffff
      000008 01                    7056 	.db	1
      000009 00                    7057 	.db	0
      00000A 01                    7058 	.uleb128	1
      00000B 7F                    7059 	.sleb128	-1
      00000C 09                    7060 	.db	9
      00000D 0C                    7061 	.db	12
      00000E 08                    7062 	.uleb128	8
      00000F 02                    7063 	.uleb128	2
      000010 89                    7064 	.db	137
      000011 01                    7065 	.uleb128	1
      000012                       7066 Ldebug_CIE0_end:
      000012 00 00 0A D9           7067 	.dw	0,2777
      000016 00 00 00 00           7068 	.dw	0,(Ldebug_CIE0_start-4)
      00001A 00 00 81 DF           7069 	.dw	0,(Smain$main$121)	;initial loc
      00001E 00 00 06 12           7070 	.dw	0,Smain$main$717-Smain$main$121
      000022 01                    7071 	.db	1
      000023 00 00 81 DF           7072 	.dw	0,(Smain$main$121)
      000027 0E                    7073 	.db	14
      000028 02                    7074 	.uleb128	2
      000029 01                    7075 	.db	1
      00002A 00 00 81 E1           7076 	.dw	0,(Smain$main$122)
      00002E 0E                    7077 	.db	14
      00002F 31                    7078 	.uleb128	49
      000030 01                    7079 	.db	1
      000031 00 00 81 F4           7080 	.dw	0,(Smain$main$128)
      000035 0E                    7081 	.db	14
      000036 32                    7082 	.uleb128	50
      000037 01                    7083 	.db	1
      000038 00 00 81 F6           7084 	.dw	0,(Smain$main$129)
      00003C 0E                    7085 	.db	14
      00003D 33                    7086 	.uleb128	51
      00003E 01                    7087 	.db	1
      00003F 00 00 81 FA           7088 	.dw	0,(Smain$main$130)
      000043 0E                    7089 	.db	14
      000044 31                    7090 	.uleb128	49
      000045 01                    7091 	.db	1
      000046 00 00 81 FC           7092 	.dw	0,(Smain$main$132)
      00004A 0E                    7093 	.db	14
      00004B 32                    7094 	.uleb128	50
      00004C 01                    7095 	.db	1
      00004D 00 00 81 FE           7096 	.dw	0,(Smain$main$133)
      000051 0E                    7097 	.db	14
      000052 33                    7098 	.uleb128	51
      000053 01                    7099 	.db	1
      000054 00 00 82 03           7100 	.dw	0,(Smain$main$134)
      000058 0E                    7101 	.db	14
      000059 35                    7102 	.uleb128	53
      00005A 01                    7103 	.db	1
      00005B 00 00 82 08           7104 	.dw	0,(Smain$main$135)
      00005F 0E                    7105 	.db	14
      000060 31                    7106 	.uleb128	49
      000061 01                    7107 	.db	1
      000062 00 00 82 0B           7108 	.dw	0,(Smain$main$137)
      000066 0E                    7109 	.db	14
      000067 33                    7110 	.uleb128	51
      000068 01                    7111 	.db	1
      000069 00 00 82 0F           7112 	.dw	0,(Smain$main$138)
      00006D 0E                    7113 	.db	14
      00006E 31                    7114 	.uleb128	49
      00006F 01                    7115 	.db	1
      000070 00 00 82 11           7116 	.dw	0,(Smain$main$140)
      000074 0E                    7117 	.db	14
      000075 32                    7118 	.uleb128	50
      000076 01                    7119 	.db	1
      000077 00 00 82 13           7120 	.dw	0,(Smain$main$141)
      00007B 0E                    7121 	.db	14
      00007C 33                    7122 	.uleb128	51
      00007D 01                    7123 	.db	1
      00007E 00 00 82 17           7124 	.dw	0,(Smain$main$142)
      000082 0E                    7125 	.db	14
      000083 31                    7126 	.uleb128	49
      000084 01                    7127 	.db	1
      000085 00 00 82 19           7128 	.dw	0,(Smain$main$144)
      000089 0E                    7129 	.db	14
      00008A 32                    7130 	.uleb128	50
      00008B 01                    7131 	.db	1
      00008C 00 00 82 1B           7132 	.dw	0,(Smain$main$145)
      000090 0E                    7133 	.db	14
      000091 33                    7134 	.uleb128	51
      000092 01                    7135 	.db	1
      000093 00 00 82 20           7136 	.dw	0,(Smain$main$146)
      000097 0E                    7137 	.db	14
      000098 35                    7138 	.uleb128	53
      000099 01                    7139 	.db	1
      00009A 00 00 82 25           7140 	.dw	0,(Smain$main$147)
      00009E 0E                    7141 	.db	14
      00009F 31                    7142 	.uleb128	49
      0000A0 01                    7143 	.db	1
      0000A1 00 00 82 28           7144 	.dw	0,(Smain$main$149)
      0000A5 0E                    7145 	.db	14
      0000A6 33                    7146 	.uleb128	51
      0000A7 01                    7147 	.db	1
      0000A8 00 00 82 2C           7148 	.dw	0,(Smain$main$150)
      0000AC 0E                    7149 	.db	14
      0000AD 31                    7150 	.uleb128	49
      0000AE 01                    7151 	.db	1
      0000AF 00 00 82 2E           7152 	.dw	0,(Smain$main$152)
      0000B3 0E                    7153 	.db	14
      0000B4 32                    7154 	.uleb128	50
      0000B5 01                    7155 	.db	1
      0000B6 00 00 82 30           7156 	.dw	0,(Smain$main$153)
      0000BA 0E                    7157 	.db	14
      0000BB 33                    7158 	.uleb128	51
      0000BC 01                    7159 	.db	1
      0000BD 00 00 82 34           7160 	.dw	0,(Smain$main$154)
      0000C1 0E                    7161 	.db	14
      0000C2 31                    7162 	.uleb128	49
      0000C3 01                    7163 	.db	1
      0000C4 00 00 82 36           7164 	.dw	0,(Smain$main$156)
      0000C8 0E                    7165 	.db	14
      0000C9 32                    7166 	.uleb128	50
      0000CA 01                    7167 	.db	1
      0000CB 00 00 82 38           7168 	.dw	0,(Smain$main$157)
      0000CF 0E                    7169 	.db	14
      0000D0 33                    7170 	.uleb128	51
      0000D1 01                    7171 	.db	1
      0000D2 00 00 82 3D           7172 	.dw	0,(Smain$main$158)
      0000D6 0E                    7173 	.db	14
      0000D7 35                    7174 	.uleb128	53
      0000D8 01                    7175 	.db	1
      0000D9 00 00 82 42           7176 	.dw	0,(Smain$main$159)
      0000DD 0E                    7177 	.db	14
      0000DE 31                    7178 	.uleb128	49
      0000DF 01                    7179 	.db	1
      0000E0 00 00 82 45           7180 	.dw	0,(Smain$main$161)
      0000E4 0E                    7181 	.db	14
      0000E5 33                    7182 	.uleb128	51
      0000E6 01                    7183 	.db	1
      0000E7 00 00 82 49           7184 	.dw	0,(Smain$main$162)
      0000EB 0E                    7185 	.db	14
      0000EC 31                    7186 	.uleb128	49
      0000ED 01                    7187 	.db	1
      0000EE 00 00 82 4B           7188 	.dw	0,(Smain$main$164)
      0000F2 0E                    7189 	.db	14
      0000F3 32                    7190 	.uleb128	50
      0000F4 01                    7191 	.db	1
      0000F5 00 00 82 4D           7192 	.dw	0,(Smain$main$165)
      0000F9 0E                    7193 	.db	14
      0000FA 33                    7194 	.uleb128	51
      0000FB 01                    7195 	.db	1
      0000FC 00 00 82 51           7196 	.dw	0,(Smain$main$166)
      000100 0E                    7197 	.db	14
      000101 31                    7198 	.uleb128	49
      000102 01                    7199 	.db	1
      000103 00 00 82 53           7200 	.dw	0,(Smain$main$168)
      000107 0E                    7201 	.db	14
      000108 32                    7202 	.uleb128	50
      000109 01                    7203 	.db	1
      00010A 00 00 82 55           7204 	.dw	0,(Smain$main$169)
      00010E 0E                    7205 	.db	14
      00010F 33                    7206 	.uleb128	51
      000110 01                    7207 	.db	1
      000111 00 00 82 5A           7208 	.dw	0,(Smain$main$170)
      000115 0E                    7209 	.db	14
      000116 35                    7210 	.uleb128	53
      000117 01                    7211 	.db	1
      000118 00 00 82 5F           7212 	.dw	0,(Smain$main$171)
      00011C 0E                    7213 	.db	14
      00011D 31                    7214 	.uleb128	49
      00011E 01                    7215 	.db	1
      00011F 00 00 82 62           7216 	.dw	0,(Smain$main$173)
      000123 0E                    7217 	.db	14
      000124 33                    7218 	.uleb128	51
      000125 01                    7219 	.db	1
      000126 00 00 82 66           7220 	.dw	0,(Smain$main$174)
      00012A 0E                    7221 	.db	14
      00012B 31                    7222 	.uleb128	49
      00012C 01                    7223 	.db	1
      00012D 00 00 82 68           7224 	.dw	0,(Smain$main$176)
      000131 0E                    7225 	.db	14
      000132 32                    7226 	.uleb128	50
      000133 01                    7227 	.db	1
      000134 00 00 82 6C           7228 	.dw	0,(Smain$main$177)
      000138 0E                    7229 	.db	14
      000139 31                    7230 	.uleb128	49
      00013A 01                    7231 	.db	1
      00013B 00 00 82 7A           7232 	.dw	0,(Smain$main$182)
      00013F 0E                    7233 	.db	14
      000140 32                    7234 	.uleb128	50
      000141 01                    7235 	.db	1
      000142 00 00 82 7C           7236 	.dw	0,(Smain$main$183)
      000146 0E                    7237 	.db	14
      000147 33                    7238 	.uleb128	51
      000148 01                    7239 	.db	1
      000149 00 00 82 80           7240 	.dw	0,(Smain$main$184)
      00014D 0E                    7241 	.db	14
      00014E 31                    7242 	.uleb128	49
      00014F 01                    7243 	.db	1
      000150 00 00 82 82           7244 	.dw	0,(Smain$main$186)
      000154 0E                    7245 	.db	14
      000155 32                    7246 	.uleb128	50
      000156 01                    7247 	.db	1
      000157 00 00 82 84           7248 	.dw	0,(Smain$main$187)
      00015B 0E                    7249 	.db	14
      00015C 33                    7250 	.uleb128	51
      00015D 01                    7251 	.db	1
      00015E 00 00 82 89           7252 	.dw	0,(Smain$main$188)
      000162 0E                    7253 	.db	14
      000163 35                    7254 	.uleb128	53
      000164 01                    7255 	.db	1
      000165 00 00 82 8E           7256 	.dw	0,(Smain$main$189)
      000169 0E                    7257 	.db	14
      00016A 31                    7258 	.uleb128	49
      00016B 01                    7259 	.db	1
      00016C 00 00 82 91           7260 	.dw	0,(Smain$main$191)
      000170 0E                    7261 	.db	14
      000171 33                    7262 	.uleb128	51
      000172 01                    7263 	.db	1
      000173 00 00 82 95           7264 	.dw	0,(Smain$main$192)
      000177 0E                    7265 	.db	14
      000178 31                    7266 	.uleb128	49
      000179 01                    7267 	.db	1
      00017A 00 00 82 B3           7268 	.dw	0,(Smain$main$198)
      00017E 0E                    7269 	.db	14
      00017F 32                    7270 	.uleb128	50
      000180 01                    7271 	.db	1
      000181 00 00 82 B5           7272 	.dw	0,(Smain$main$199)
      000185 0E                    7273 	.db	14
      000186 33                    7274 	.uleb128	51
      000187 01                    7275 	.db	1
      000188 00 00 82 B9           7276 	.dw	0,(Smain$main$200)
      00018C 0E                    7277 	.db	14
      00018D 31                    7278 	.uleb128	49
      00018E 01                    7279 	.db	1
      00018F 00 00 82 BB           7280 	.dw	0,(Smain$main$202)
      000193 0E                    7281 	.db	14
      000194 32                    7282 	.uleb128	50
      000195 01                    7283 	.db	1
      000196 00 00 82 BD           7284 	.dw	0,(Smain$main$203)
      00019A 0E                    7285 	.db	14
      00019B 33                    7286 	.uleb128	51
      00019C 01                    7287 	.db	1
      00019D 00 00 82 C2           7288 	.dw	0,(Smain$main$204)
      0001A1 0E                    7289 	.db	14
      0001A2 35                    7290 	.uleb128	53
      0001A3 01                    7291 	.db	1
      0001A4 00 00 82 C7           7292 	.dw	0,(Smain$main$205)
      0001A8 0E                    7293 	.db	14
      0001A9 31                    7294 	.uleb128	49
      0001AA 01                    7295 	.db	1
      0001AB 00 00 82 CA           7296 	.dw	0,(Smain$main$207)
      0001AF 0E                    7297 	.db	14
      0001B0 33                    7298 	.uleb128	51
      0001B1 01                    7299 	.db	1
      0001B2 00 00 82 CE           7300 	.dw	0,(Smain$main$208)
      0001B6 0E                    7301 	.db	14
      0001B7 31                    7302 	.uleb128	49
      0001B8 01                    7303 	.db	1
      0001B9 00 00 82 E2           7304 	.dw	0,(Smain$main$214)
      0001BD 0E                    7305 	.db	14
      0001BE 32                    7306 	.uleb128	50
      0001BF 01                    7307 	.db	1
      0001C0 00 00 82 E4           7308 	.dw	0,(Smain$main$215)
      0001C4 0E                    7309 	.db	14
      0001C5 33                    7310 	.uleb128	51
      0001C6 01                    7311 	.db	1
      0001C7 00 00 82 E8           7312 	.dw	0,(Smain$main$216)
      0001CB 0E                    7313 	.db	14
      0001CC 31                    7314 	.uleb128	49
      0001CD 01                    7315 	.db	1
      0001CE 00 00 82 EA           7316 	.dw	0,(Smain$main$218)
      0001D2 0E                    7317 	.db	14
      0001D3 32                    7318 	.uleb128	50
      0001D4 01                    7319 	.db	1
      0001D5 00 00 82 EC           7320 	.dw	0,(Smain$main$219)
      0001D9 0E                    7321 	.db	14
      0001DA 33                    7322 	.uleb128	51
      0001DB 01                    7323 	.db	1
      0001DC 00 00 82 F1           7324 	.dw	0,(Smain$main$220)
      0001E0 0E                    7325 	.db	14
      0001E1 35                    7326 	.uleb128	53
      0001E2 01                    7327 	.db	1
      0001E3 00 00 82 F6           7328 	.dw	0,(Smain$main$221)
      0001E7 0E                    7329 	.db	14
      0001E8 31                    7330 	.uleb128	49
      0001E9 01                    7331 	.db	1
      0001EA 00 00 82 F9           7332 	.dw	0,(Smain$main$223)
      0001EE 0E                    7333 	.db	14
      0001EF 33                    7334 	.uleb128	51
      0001F0 01                    7335 	.db	1
      0001F1 00 00 82 FD           7336 	.dw	0,(Smain$main$224)
      0001F5 0E                    7337 	.db	14
      0001F6 31                    7338 	.uleb128	49
      0001F7 01                    7339 	.db	1
      0001F8 00 00 83 07           7340 	.dw	0,(Smain$main$228)
      0001FC 0E                    7341 	.db	14
      0001FD 32                    7342 	.uleb128	50
      0001FE 01                    7343 	.db	1
      0001FF 00 00 83 09           7344 	.dw	0,(Smain$main$229)
      000203 0E                    7345 	.db	14
      000204 33                    7346 	.uleb128	51
      000205 01                    7347 	.db	1
      000206 00 00 83 0B           7348 	.dw	0,(Smain$main$230)
      00020A 0E                    7349 	.db	14
      00020B 34                    7350 	.uleb128	52
      00020C 01                    7351 	.db	1
      00020D 00 00 83 10           7352 	.dw	0,(Smain$main$231)
      000211 0E                    7353 	.db	14
      000212 31                    7354 	.uleb128	49
      000213 01                    7355 	.db	1
      000214 00 00 83 22           7356 	.dw	0,(Smain$main$235)
      000218 0E                    7357 	.db	14
      000219 32                    7358 	.uleb128	50
      00021A 01                    7359 	.db	1
      00021B 00 00 83 24           7360 	.dw	0,(Smain$main$236)
      00021F 0E                    7361 	.db	14
      000220 33                    7362 	.uleb128	51
      000221 01                    7363 	.db	1
      000222 00 00 83 26           7364 	.dw	0,(Smain$main$237)
      000226 0E                    7365 	.db	14
      000227 34                    7366 	.uleb128	52
      000228 01                    7367 	.db	1
      000229 00 00 83 28           7368 	.dw	0,(Smain$main$238)
      00022D 0E                    7369 	.db	14
      00022E 35                    7370 	.uleb128	53
      00022F 01                    7371 	.db	1
      000230 00 00 83 29           7372 	.dw	0,(Smain$main$239)
      000234 0E                    7373 	.db	14
      000235 37                    7374 	.uleb128	55
      000236 01                    7375 	.db	1
      000237 00 00 83 2B           7376 	.dw	0,(Smain$main$240)
      00023B 0E                    7377 	.db	14
      00023C 39                    7378 	.uleb128	57
      00023D 01                    7379 	.db	1
      00023E 00 00 83 30           7380 	.dw	0,(Smain$main$241)
      000242 0E                    7381 	.db	14
      000243 31                    7382 	.uleb128	49
      000244 01                    7383 	.db	1
      000245 00 00 83 3B           7384 	.dw	0,(Smain$main$245)
      000249 0E                    7385 	.db	14
      00024A 32                    7386 	.uleb128	50
      00024B 01                    7387 	.db	1
      00024C 00 00 83 3D           7388 	.dw	0,(Smain$main$246)
      000250 0E                    7389 	.db	14
      000251 33                    7390 	.uleb128	51
      000252 01                    7391 	.db	1
      000253 00 00 83 41           7392 	.dw	0,(Smain$main$247)
      000257 0E                    7393 	.db	14
      000258 31                    7394 	.uleb128	49
      000259 01                    7395 	.db	1
      00025A 00 00 83 43           7396 	.dw	0,(Smain$main$249)
      00025E 0E                    7397 	.db	14
      00025F 32                    7398 	.uleb128	50
      000260 01                    7399 	.db	1
      000261 00 00 83 45           7400 	.dw	0,(Smain$main$250)
      000265 0E                    7401 	.db	14
      000266 33                    7402 	.uleb128	51
      000267 01                    7403 	.db	1
      000268 00 00 83 4A           7404 	.dw	0,(Smain$main$251)
      00026C 0E                    7405 	.db	14
      00026D 35                    7406 	.uleb128	53
      00026E 01                    7407 	.db	1
      00026F 00 00 83 4F           7408 	.dw	0,(Smain$main$252)
      000273 0E                    7409 	.db	14
      000274 31                    7410 	.uleb128	49
      000275 01                    7411 	.db	1
      000276 00 00 83 52           7412 	.dw	0,(Smain$main$254)
      00027A 0E                    7413 	.db	14
      00027B 33                    7414 	.uleb128	51
      00027C 01                    7415 	.db	1
      00027D 00 00 83 56           7416 	.dw	0,(Smain$main$255)
      000281 0E                    7417 	.db	14
      000282 31                    7418 	.uleb128	49
      000283 01                    7419 	.db	1
      000284 00 00 83 68           7420 	.dw	0,(Smain$main$259)
      000288 0E                    7421 	.db	14
      000289 31                    7422 	.uleb128	49
      00028A 01                    7423 	.db	1
      00028B 00 00 83 71           7424 	.dw	0,(Smain$main$262)
      00028F 0E                    7425 	.db	14
      000290 32                    7426 	.uleb128	50
      000291 01                    7427 	.db	1
      000292 00 00 83 73           7428 	.dw	0,(Smain$main$263)
      000296 0E                    7429 	.db	14
      000297 33                    7430 	.uleb128	51
      000298 01                    7431 	.db	1
      000299 00 00 83 77           7432 	.dw	0,(Smain$main$264)
      00029D 0E                    7433 	.db	14
      00029E 31                    7434 	.uleb128	49
      00029F 01                    7435 	.db	1
      0002A0 00 00 83 79           7436 	.dw	0,(Smain$main$266)
      0002A4 0E                    7437 	.db	14
      0002A5 32                    7438 	.uleb128	50
      0002A6 01                    7439 	.db	1
      0002A7 00 00 83 7B           7440 	.dw	0,(Smain$main$267)
      0002AB 0E                    7441 	.db	14
      0002AC 33                    7442 	.uleb128	51
      0002AD 01                    7443 	.db	1
      0002AE 00 00 83 80           7444 	.dw	0,(Smain$main$268)
      0002B2 0E                    7445 	.db	14
      0002B3 35                    7446 	.uleb128	53
      0002B4 01                    7447 	.db	1
      0002B5 00 00 83 85           7448 	.dw	0,(Smain$main$269)
      0002B9 0E                    7449 	.db	14
      0002BA 31                    7450 	.uleb128	49
      0002BB 01                    7451 	.db	1
      0002BC 00 00 83 88           7452 	.dw	0,(Smain$main$271)
      0002C0 0E                    7453 	.db	14
      0002C1 33                    7454 	.uleb128	51
      0002C2 01                    7455 	.db	1
      0002C3 00 00 83 8C           7456 	.dw	0,(Smain$main$272)
      0002C7 0E                    7457 	.db	14
      0002C8 31                    7458 	.uleb128	49
      0002C9 01                    7459 	.db	1
      0002CA 00 00 83 9C           7460 	.dw	0,(Smain$main$276)
      0002CE 0E                    7461 	.db	14
      0002CF 31                    7462 	.uleb128	49
      0002D0 01                    7463 	.db	1
      0002D1 00 00 83 A5           7464 	.dw	0,(Smain$main$279)
      0002D5 0E                    7465 	.db	14
      0002D6 32                    7466 	.uleb128	50
      0002D7 01                    7467 	.db	1
      0002D8 00 00 83 A7           7468 	.dw	0,(Smain$main$280)
      0002DC 0E                    7469 	.db	14
      0002DD 33                    7470 	.uleb128	51
      0002DE 01                    7471 	.db	1
      0002DF 00 00 83 AB           7472 	.dw	0,(Smain$main$281)
      0002E3 0E                    7473 	.db	14
      0002E4 31                    7474 	.uleb128	49
      0002E5 01                    7475 	.db	1
      0002E6 00 00 83 AD           7476 	.dw	0,(Smain$main$283)
      0002EA 0E                    7477 	.db	14
      0002EB 32                    7478 	.uleb128	50
      0002EC 01                    7479 	.db	1
      0002ED 00 00 83 AF           7480 	.dw	0,(Smain$main$284)
      0002F1 0E                    7481 	.db	14
      0002F2 33                    7482 	.uleb128	51
      0002F3 01                    7483 	.db	1
      0002F4 00 00 83 B4           7484 	.dw	0,(Smain$main$285)
      0002F8 0E                    7485 	.db	14
      0002F9 35                    7486 	.uleb128	53
      0002FA 01                    7487 	.db	1
      0002FB 00 00 83 B9           7488 	.dw	0,(Smain$main$286)
      0002FF 0E                    7489 	.db	14
      000300 31                    7490 	.uleb128	49
      000301 01                    7491 	.db	1
      000302 00 00 83 BC           7492 	.dw	0,(Smain$main$288)
      000306 0E                    7493 	.db	14
      000307 33                    7494 	.uleb128	51
      000308 01                    7495 	.db	1
      000309 00 00 83 C0           7496 	.dw	0,(Smain$main$289)
      00030D 0E                    7497 	.db	14
      00030E 31                    7498 	.uleb128	49
      00030F 01                    7499 	.db	1
      000310 00 00 83 C2           7500 	.dw	0,(Smain$main$292)
      000314 0E                    7501 	.db	14
      000315 32                    7502 	.uleb128	50
      000316 01                    7503 	.db	1
      000317 00 00 83 C4           7504 	.dw	0,(Smain$main$293)
      00031B 0E                    7505 	.db	14
      00031C 33                    7506 	.uleb128	51
      00031D 01                    7507 	.db	1
      00031E 00 00 83 C8           7508 	.dw	0,(Smain$main$294)
      000322 0E                    7509 	.db	14
      000323 31                    7510 	.uleb128	49
      000324 01                    7511 	.db	1
      000325 00 00 83 CB           7512 	.dw	0,(Smain$main$296)
      000329 0E                    7513 	.db	14
      00032A 33                    7514 	.uleb128	51
      00032B 01                    7515 	.db	1
      00032C 00 00 83 CD           7516 	.dw	0,(Smain$main$297)
      000330 0E                    7517 	.db	14
      000331 34                    7518 	.uleb128	52
      000332 01                    7519 	.db	1
      000333 00 00 83 CF           7520 	.dw	0,(Smain$main$298)
      000337 0E                    7521 	.db	14
      000338 35                    7522 	.uleb128	53
      000339 01                    7523 	.db	1
      00033A 00 00 83 D4           7524 	.dw	0,(Smain$main$299)
      00033E 0E                    7525 	.db	14
      00033F 37                    7526 	.uleb128	55
      000340 01                    7527 	.db	1
      000341 00 00 83 D9           7528 	.dw	0,(Smain$main$300)
      000345 0E                    7529 	.db	14
      000346 31                    7530 	.uleb128	49
      000347 01                    7531 	.db	1
      000348 00 00 83 DC           7532 	.dw	0,(Smain$main$302)
      00034C 0E                    7533 	.db	14
      00034D 33                    7534 	.uleb128	51
      00034E 01                    7535 	.db	1
      00034F 00 00 83 E0           7536 	.dw	0,(Smain$main$303)
      000353 0E                    7537 	.db	14
      000354 31                    7538 	.uleb128	49
      000355 01                    7539 	.db	1
      000356 00 00 83 E2           7540 	.dw	0,(Smain$main$305)
      00035A 0E                    7541 	.db	14
      00035B 32                    7542 	.uleb128	50
      00035C 01                    7543 	.db	1
      00035D 00 00 83 E4           7544 	.dw	0,(Smain$main$306)
      000361 0E                    7545 	.db	14
      000362 33                    7546 	.uleb128	51
      000363 01                    7547 	.db	1
      000364 00 00 83 E8           7548 	.dw	0,(Smain$main$307)
      000368 0E                    7549 	.db	14
      000369 31                    7550 	.uleb128	49
      00036A 01                    7551 	.db	1
      00036B 00 00 83 EB           7552 	.dw	0,(Smain$main$309)
      00036F 0E                    7553 	.db	14
      000370 33                    7554 	.uleb128	51
      000371 01                    7555 	.db	1
      000372 00 00 83 ED           7556 	.dw	0,(Smain$main$310)
      000376 0E                    7557 	.db	14
      000377 34                    7558 	.uleb128	52
      000378 01                    7559 	.db	1
      000379 00 00 83 EF           7560 	.dw	0,(Smain$main$311)
      00037D 0E                    7561 	.db	14
      00037E 35                    7562 	.uleb128	53
      00037F 01                    7563 	.db	1
      000380 00 00 83 F4           7564 	.dw	0,(Smain$main$312)
      000384 0E                    7565 	.db	14
      000385 37                    7566 	.uleb128	55
      000386 01                    7567 	.db	1
      000387 00 00 83 F9           7568 	.dw	0,(Smain$main$313)
      00038B 0E                    7569 	.db	14
      00038C 31                    7570 	.uleb128	49
      00038D 01                    7571 	.db	1
      00038E 00 00 83 FC           7572 	.dw	0,(Smain$main$315)
      000392 0E                    7573 	.db	14
      000393 33                    7574 	.uleb128	51
      000394 01                    7575 	.db	1
      000395 00 00 84 00           7576 	.dw	0,(Smain$main$316)
      000399 0E                    7577 	.db	14
      00039A 31                    7578 	.uleb128	49
      00039B 01                    7579 	.db	1
      00039C 00 00 84 12           7580 	.dw	0,(Smain$main$319)
      0003A0 0E                    7581 	.db	14
      0003A1 31                    7582 	.uleb128	49
      0003A2 01                    7583 	.db	1
      0003A3 00 00 84 26           7584 	.dw	0,(Smain$main$321)
      0003A7 0E                    7585 	.db	14
      0003A8 31                    7586 	.uleb128	49
      0003A9 01                    7587 	.db	1
      0003AA 00 00 84 3A           7588 	.dw	0,(Smain$main$323)
      0003AE 0E                    7589 	.db	14
      0003AF 31                    7590 	.uleb128	49
      0003B0 01                    7591 	.db	1
      0003B1 00 00 84 4A           7592 	.dw	0,(Smain$main$329)
      0003B5 0E                    7593 	.db	14
      0003B6 32                    7594 	.uleb128	50
      0003B7 01                    7595 	.db	1
      0003B8 00 00 84 4C           7596 	.dw	0,(Smain$main$330)
      0003BC 0E                    7597 	.db	14
      0003BD 33                    7598 	.uleb128	51
      0003BE 01                    7599 	.db	1
      0003BF 00 00 84 50           7600 	.dw	0,(Smain$main$331)
      0003C3 0E                    7601 	.db	14
      0003C4 31                    7602 	.uleb128	49
      0003C5 01                    7603 	.db	1
      0003C6 00 00 84 52           7604 	.dw	0,(Smain$main$333)
      0003CA 0E                    7605 	.db	14
      0003CB 32                    7606 	.uleb128	50
      0003CC 01                    7607 	.db	1
      0003CD 00 00 84 54           7608 	.dw	0,(Smain$main$334)
      0003D1 0E                    7609 	.db	14
      0003D2 33                    7610 	.uleb128	51
      0003D3 01                    7611 	.db	1
      0003D4 00 00 84 59           7612 	.dw	0,(Smain$main$335)
      0003D8 0E                    7613 	.db	14
      0003D9 35                    7614 	.uleb128	53
      0003DA 01                    7615 	.db	1
      0003DB 00 00 84 5E           7616 	.dw	0,(Smain$main$336)
      0003DF 0E                    7617 	.db	14
      0003E0 31                    7618 	.uleb128	49
      0003E1 01                    7619 	.db	1
      0003E2 00 00 84 61           7620 	.dw	0,(Smain$main$338)
      0003E6 0E                    7621 	.db	14
      0003E7 33                    7622 	.uleb128	51
      0003E8 01                    7623 	.db	1
      0003E9 00 00 84 65           7624 	.dw	0,(Smain$main$339)
      0003ED 0E                    7625 	.db	14
      0003EE 31                    7626 	.uleb128	49
      0003EF 01                    7627 	.db	1
      0003F0 00 00 84 67           7628 	.dw	0,(Smain$main$341)
      0003F4 0E                    7629 	.db	14
      0003F5 32                    7630 	.uleb128	50
      0003F6 01                    7631 	.db	1
      0003F7 00 00 84 69           7632 	.dw	0,(Smain$main$342)
      0003FB 0E                    7633 	.db	14
      0003FC 33                    7634 	.uleb128	51
      0003FD 01                    7635 	.db	1
      0003FE 00 00 84 6D           7636 	.dw	0,(Smain$main$343)
      000402 0E                    7637 	.db	14
      000403 31                    7638 	.uleb128	49
      000404 01                    7639 	.db	1
      000405 00 00 84 6F           7640 	.dw	0,(Smain$main$345)
      000409 0E                    7641 	.db	14
      00040A 32                    7642 	.uleb128	50
      00040B 01                    7643 	.db	1
      00040C 00 00 84 71           7644 	.dw	0,(Smain$main$346)
      000410 0E                    7645 	.db	14
      000411 33                    7646 	.uleb128	51
      000412 01                    7647 	.db	1
      000413 00 00 84 76           7648 	.dw	0,(Smain$main$347)
      000417 0E                    7649 	.db	14
      000418 35                    7650 	.uleb128	53
      000419 01                    7651 	.db	1
      00041A 00 00 84 7B           7652 	.dw	0,(Smain$main$348)
      00041E 0E                    7653 	.db	14
      00041F 31                    7654 	.uleb128	49
      000420 01                    7655 	.db	1
      000421 00 00 84 7E           7656 	.dw	0,(Smain$main$350)
      000425 0E                    7657 	.db	14
      000426 33                    7658 	.uleb128	51
      000427 01                    7659 	.db	1
      000428 00 00 84 82           7660 	.dw	0,(Smain$main$351)
      00042C 0E                    7661 	.db	14
      00042D 31                    7662 	.uleb128	49
      00042E 01                    7663 	.db	1
      00042F 00 00 84 8B           7664 	.dw	0,(Smain$main$356)
      000433 0E                    7665 	.db	14
      000434 32                    7666 	.uleb128	50
      000435 01                    7667 	.db	1
      000436 00 00 84 8D           7668 	.dw	0,(Smain$main$357)
      00043A 0E                    7669 	.db	14
      00043B 33                    7670 	.uleb128	51
      00043C 01                    7671 	.db	1
      00043D 00 00 84 91           7672 	.dw	0,(Smain$main$358)
      000441 0E                    7673 	.db	14
      000442 31                    7674 	.uleb128	49
      000443 01                    7675 	.db	1
      000444 00 00 84 93           7676 	.dw	0,(Smain$main$360)
      000448 0E                    7677 	.db	14
      000449 32                    7678 	.uleb128	50
      00044A 01                    7679 	.db	1
      00044B 00 00 84 95           7680 	.dw	0,(Smain$main$361)
      00044F 0E                    7681 	.db	14
      000450 33                    7682 	.uleb128	51
      000451 01                    7683 	.db	1
      000452 00 00 84 9A           7684 	.dw	0,(Smain$main$362)
      000456 0E                    7685 	.db	14
      000457 35                    7686 	.uleb128	53
      000458 01                    7687 	.db	1
      000459 00 00 84 9F           7688 	.dw	0,(Smain$main$363)
      00045D 0E                    7689 	.db	14
      00045E 31                    7690 	.uleb128	49
      00045F 01                    7691 	.db	1
      000460 00 00 84 A2           7692 	.dw	0,(Smain$main$365)
      000464 0E                    7693 	.db	14
      000465 33                    7694 	.uleb128	51
      000466 01                    7695 	.db	1
      000467 00 00 84 A6           7696 	.dw	0,(Smain$main$366)
      00046B 0E                    7697 	.db	14
      00046C 31                    7698 	.uleb128	49
      00046D 01                    7699 	.db	1
      00046E 00 00 84 A8           7700 	.dw	0,(Smain$main$368)
      000472 0E                    7701 	.db	14
      000473 32                    7702 	.uleb128	50
      000474 01                    7703 	.db	1
      000475 00 00 84 AA           7704 	.dw	0,(Smain$main$369)
      000479 0E                    7705 	.db	14
      00047A 33                    7706 	.uleb128	51
      00047B 01                    7707 	.db	1
      00047C 00 00 84 AE           7708 	.dw	0,(Smain$main$370)
      000480 0E                    7709 	.db	14
      000481 31                    7710 	.uleb128	49
      000482 01                    7711 	.db	1
      000483 00 00 84 B0           7712 	.dw	0,(Smain$main$372)
      000487 0E                    7713 	.db	14
      000488 32                    7714 	.uleb128	50
      000489 01                    7715 	.db	1
      00048A 00 00 84 B2           7716 	.dw	0,(Smain$main$373)
      00048E 0E                    7717 	.db	14
      00048F 33                    7718 	.uleb128	51
      000490 01                    7719 	.db	1
      000491 00 00 84 B7           7720 	.dw	0,(Smain$main$374)
      000495 0E                    7721 	.db	14
      000496 35                    7722 	.uleb128	53
      000497 01                    7723 	.db	1
      000498 00 00 84 BC           7724 	.dw	0,(Smain$main$375)
      00049C 0E                    7725 	.db	14
      00049D 31                    7726 	.uleb128	49
      00049E 01                    7727 	.db	1
      00049F 00 00 84 BF           7728 	.dw	0,(Smain$main$377)
      0004A3 0E                    7729 	.db	14
      0004A4 33                    7730 	.uleb128	51
      0004A5 01                    7731 	.db	1
      0004A6 00 00 84 C3           7732 	.dw	0,(Smain$main$378)
      0004AA 0E                    7733 	.db	14
      0004AB 31                    7734 	.uleb128	49
      0004AC 01                    7735 	.db	1
      0004AD 00 00 84 CA           7736 	.dw	0,(Smain$main$381)
      0004B1 0E                    7737 	.db	14
      0004B2 32                    7738 	.uleb128	50
      0004B3 01                    7739 	.db	1
      0004B4 00 00 84 CC           7740 	.dw	0,(Smain$main$382)
      0004B8 0E                    7741 	.db	14
      0004B9 33                    7742 	.uleb128	51
      0004BA 01                    7743 	.db	1
      0004BB 00 00 84 D0           7744 	.dw	0,(Smain$main$383)
      0004BF 0E                    7745 	.db	14
      0004C0 31                    7746 	.uleb128	49
      0004C1 01                    7747 	.db	1
      0004C2 00 00 84 D3           7748 	.dw	0,(Smain$main$385)
      0004C6 0E                    7749 	.db	14
      0004C7 33                    7750 	.uleb128	51
      0004C8 01                    7751 	.db	1
      0004C9 00 00 84 D5           7752 	.dw	0,(Smain$main$386)
      0004CD 0E                    7753 	.db	14
      0004CE 34                    7754 	.uleb128	52
      0004CF 01                    7755 	.db	1
      0004D0 00 00 84 D7           7756 	.dw	0,(Smain$main$387)
      0004D4 0E                    7757 	.db	14
      0004D5 35                    7758 	.uleb128	53
      0004D6 01                    7759 	.db	1
      0004D7 00 00 84 DC           7760 	.dw	0,(Smain$main$388)
      0004DB 0E                    7761 	.db	14
      0004DC 37                    7762 	.uleb128	55
      0004DD 01                    7763 	.db	1
      0004DE 00 00 84 E1           7764 	.dw	0,(Smain$main$389)
      0004E2 0E                    7765 	.db	14
      0004E3 31                    7766 	.uleb128	49
      0004E4 01                    7767 	.db	1
      0004E5 00 00 84 E4           7768 	.dw	0,(Smain$main$391)
      0004E9 0E                    7769 	.db	14
      0004EA 33                    7770 	.uleb128	51
      0004EB 01                    7771 	.db	1
      0004EC 00 00 84 E8           7772 	.dw	0,(Smain$main$392)
      0004F0 0E                    7773 	.db	14
      0004F1 31                    7774 	.uleb128	49
      0004F2 01                    7775 	.db	1
      0004F3 00 00 84 EA           7776 	.dw	0,(Smain$main$394)
      0004F7 0E                    7777 	.db	14
      0004F8 32                    7778 	.uleb128	50
      0004F9 01                    7779 	.db	1
      0004FA 00 00 84 EC           7780 	.dw	0,(Smain$main$395)
      0004FE 0E                    7781 	.db	14
      0004FF 33                    7782 	.uleb128	51
      000500 01                    7783 	.db	1
      000501 00 00 84 EE           7784 	.dw	0,(Smain$main$396)
      000505 0E                    7785 	.db	14
      000506 34                    7786 	.uleb128	52
      000507 01                    7787 	.db	1
      000508 00 00 84 F3           7788 	.dw	0,(Smain$main$397)
      00050C 0E                    7789 	.db	14
      00050D 31                    7790 	.uleb128	49
      00050E 01                    7791 	.db	1
      00050F 00 00 84 F5           7792 	.dw	0,(Smain$main$399)
      000513 0E                    7793 	.db	14
      000514 32                    7794 	.uleb128	50
      000515 01                    7795 	.db	1
      000516 00 00 84 F7           7796 	.dw	0,(Smain$main$400)
      00051A 0E                    7797 	.db	14
      00051B 33                    7798 	.uleb128	51
      00051C 01                    7799 	.db	1
      00051D 00 00 84 FB           7800 	.dw	0,(Smain$main$401)
      000521 0E                    7801 	.db	14
      000522 31                    7802 	.uleb128	49
      000523 01                    7803 	.db	1
      000524 00 00 84 FD           7804 	.dw	0,(Smain$main$403)
      000528 0E                    7805 	.db	14
      000529 32                    7806 	.uleb128	50
      00052A 01                    7807 	.db	1
      00052B 00 00 84 FF           7808 	.dw	0,(Smain$main$404)
      00052F 0E                    7809 	.db	14
      000530 33                    7810 	.uleb128	51
      000531 01                    7811 	.db	1
      000532 00 00 85 01           7812 	.dw	0,(Smain$main$405)
      000536 0E                    7813 	.db	14
      000537 34                    7814 	.uleb128	52
      000538 01                    7815 	.db	1
      000539 00 00 85 06           7816 	.dw	0,(Smain$main$406)
      00053D 0E                    7817 	.db	14
      00053E 31                    7818 	.uleb128	49
      00053F 01                    7819 	.db	1
      000540 00 00 85 0F           7820 	.dw	0,(Smain$main$411)
      000544 0E                    7821 	.db	14
      000545 32                    7822 	.uleb128	50
      000546 01                    7823 	.db	1
      000547 00 00 85 11           7824 	.dw	0,(Smain$main$412)
      00054B 0E                    7825 	.db	14
      00054C 33                    7826 	.uleb128	51
      00054D 01                    7827 	.db	1
      00054E 00 00 85 15           7828 	.dw	0,(Smain$main$413)
      000552 0E                    7829 	.db	14
      000553 31                    7830 	.uleb128	49
      000554 01                    7831 	.db	1
      000555 00 00 85 17           7832 	.dw	0,(Smain$main$415)
      000559 0E                    7833 	.db	14
      00055A 32                    7834 	.uleb128	50
      00055B 01                    7835 	.db	1
      00055C 00 00 85 19           7836 	.dw	0,(Smain$main$416)
      000560 0E                    7837 	.db	14
      000561 33                    7838 	.uleb128	51
      000562 01                    7839 	.db	1
      000563 00 00 85 1E           7840 	.dw	0,(Smain$main$417)
      000567 0E                    7841 	.db	14
      000568 35                    7842 	.uleb128	53
      000569 01                    7843 	.db	1
      00056A 00 00 85 23           7844 	.dw	0,(Smain$main$418)
      00056E 0E                    7845 	.db	14
      00056F 31                    7846 	.uleb128	49
      000570 01                    7847 	.db	1
      000571 00 00 85 26           7848 	.dw	0,(Smain$main$420)
      000575 0E                    7849 	.db	14
      000576 33                    7850 	.uleb128	51
      000577 01                    7851 	.db	1
      000578 00 00 85 2A           7852 	.dw	0,(Smain$main$421)
      00057C 0E                    7853 	.db	14
      00057D 31                    7854 	.uleb128	49
      00057E 01                    7855 	.db	1
      00057F 00 00 85 31           7856 	.dw	0,(Smain$main$424)
      000583 0E                    7857 	.db	14
      000584 32                    7858 	.uleb128	50
      000585 01                    7859 	.db	1
      000586 00 00 85 33           7860 	.dw	0,(Smain$main$425)
      00058A 0E                    7861 	.db	14
      00058B 33                    7862 	.uleb128	51
      00058C 01                    7863 	.db	1
      00058D 00 00 85 37           7864 	.dw	0,(Smain$main$426)
      000591 0E                    7865 	.db	14
      000592 31                    7866 	.uleb128	49
      000593 01                    7867 	.db	1
      000594 00 00 85 39           7868 	.dw	0,(Smain$main$428)
      000598 0E                    7869 	.db	14
      000599 32                    7870 	.uleb128	50
      00059A 01                    7871 	.db	1
      00059B 00 00 85 3B           7872 	.dw	0,(Smain$main$429)
      00059F 0E                    7873 	.db	14
      0005A0 33                    7874 	.uleb128	51
      0005A1 01                    7875 	.db	1
      0005A2 00 00 85 40           7876 	.dw	0,(Smain$main$430)
      0005A6 0E                    7877 	.db	14
      0005A7 35                    7878 	.uleb128	53
      0005A8 01                    7879 	.db	1
      0005A9 00 00 85 45           7880 	.dw	0,(Smain$main$431)
      0005AD 0E                    7881 	.db	14
      0005AE 31                    7882 	.uleb128	49
      0005AF 01                    7883 	.db	1
      0005B0 00 00 85 48           7884 	.dw	0,(Smain$main$433)
      0005B4 0E                    7885 	.db	14
      0005B5 33                    7886 	.uleb128	51
      0005B6 01                    7887 	.db	1
      0005B7 00 00 85 4C           7888 	.dw	0,(Smain$main$434)
      0005BB 0E                    7889 	.db	14
      0005BC 31                    7890 	.uleb128	49
      0005BD 01                    7891 	.db	1
      0005BE 00 00 85 4E           7892 	.dw	0,(Smain$main$436)
      0005C2 0E                    7893 	.db	14
      0005C3 32                    7894 	.uleb128	50
      0005C4 01                    7895 	.db	1
      0005C5 00 00 85 50           7896 	.dw	0,(Smain$main$437)
      0005C9 0E                    7897 	.db	14
      0005CA 33                    7898 	.uleb128	51
      0005CB 01                    7899 	.db	1
      0005CC 00 00 85 54           7900 	.dw	0,(Smain$main$438)
      0005D0 0E                    7901 	.db	14
      0005D1 31                    7902 	.uleb128	49
      0005D2 01                    7903 	.db	1
      0005D3 00 00 85 57           7904 	.dw	0,(Smain$main$440)
      0005D7 0E                    7905 	.db	14
      0005D8 33                    7906 	.uleb128	51
      0005D9 01                    7907 	.db	1
      0005DA 00 00 85 59           7908 	.dw	0,(Smain$main$441)
      0005DE 0E                    7909 	.db	14
      0005DF 34                    7910 	.uleb128	52
      0005E0 01                    7911 	.db	1
      0005E1 00 00 85 5B           7912 	.dw	0,(Smain$main$442)
      0005E5 0E                    7913 	.db	14
      0005E6 35                    7914 	.uleb128	53
      0005E7 01                    7915 	.db	1
      0005E8 00 00 85 60           7916 	.dw	0,(Smain$main$443)
      0005EC 0E                    7917 	.db	14
      0005ED 37                    7918 	.uleb128	55
      0005EE 01                    7919 	.db	1
      0005EF 00 00 85 65           7920 	.dw	0,(Smain$main$444)
      0005F3 0E                    7921 	.db	14
      0005F4 31                    7922 	.uleb128	49
      0005F5 01                    7923 	.db	1
      0005F6 00 00 85 68           7924 	.dw	0,(Smain$main$446)
      0005FA 0E                    7925 	.db	14
      0005FB 33                    7926 	.uleb128	51
      0005FC 01                    7927 	.db	1
      0005FD 00 00 85 6C           7928 	.dw	0,(Smain$main$447)
      000601 0E                    7929 	.db	14
      000602 31                    7930 	.uleb128	49
      000603 01                    7931 	.db	1
      000604 00 00 85 7C           7932 	.dw	0,(Smain$main$454)
      000608 0E                    7933 	.db	14
      000609 32                    7934 	.uleb128	50
      00060A 01                    7935 	.db	1
      00060B 00 00 85 7E           7936 	.dw	0,(Smain$main$455)
      00060F 0E                    7937 	.db	14
      000610 33                    7938 	.uleb128	51
      000611 01                    7939 	.db	1
      000612 00 00 85 82           7940 	.dw	0,(Smain$main$456)
      000616 0E                    7941 	.db	14
      000617 31                    7942 	.uleb128	49
      000618 01                    7943 	.db	1
      000619 00 00 85 84           7944 	.dw	0,(Smain$main$458)
      00061D 0E                    7945 	.db	14
      00061E 32                    7946 	.uleb128	50
      00061F 01                    7947 	.db	1
      000620 00 00 85 86           7948 	.dw	0,(Smain$main$459)
      000624 0E                    7949 	.db	14
      000625 33                    7950 	.uleb128	51
      000626 01                    7951 	.db	1
      000627 00 00 85 8B           7952 	.dw	0,(Smain$main$460)
      00062B 0E                    7953 	.db	14
      00062C 35                    7954 	.uleb128	53
      00062D 01                    7955 	.db	1
      00062E 00 00 85 90           7956 	.dw	0,(Smain$main$461)
      000632 0E                    7957 	.db	14
      000633 31                    7958 	.uleb128	49
      000634 01                    7959 	.db	1
      000635 00 00 85 93           7960 	.dw	0,(Smain$main$463)
      000639 0E                    7961 	.db	14
      00063A 33                    7962 	.uleb128	51
      00063B 01                    7963 	.db	1
      00063C 00 00 85 97           7964 	.dw	0,(Smain$main$464)
      000640 0E                    7965 	.db	14
      000641 31                    7966 	.uleb128	49
      000642 01                    7967 	.db	1
      000643 00 00 85 9E           7968 	.dw	0,(Smain$main$467)
      000647 0E                    7969 	.db	14
      000648 32                    7970 	.uleb128	50
      000649 01                    7971 	.db	1
      00064A 00 00 85 A0           7972 	.dw	0,(Smain$main$468)
      00064E 0E                    7973 	.db	14
      00064F 33                    7974 	.uleb128	51
      000650 01                    7975 	.db	1
      000651 00 00 85 A4           7976 	.dw	0,(Smain$main$469)
      000655 0E                    7977 	.db	14
      000656 31                    7978 	.uleb128	49
      000657 01                    7979 	.db	1
      000658 00 00 85 A6           7980 	.dw	0,(Smain$main$471)
      00065C 0E                    7981 	.db	14
      00065D 32                    7982 	.uleb128	50
      00065E 01                    7983 	.db	1
      00065F 00 00 85 A8           7984 	.dw	0,(Smain$main$472)
      000663 0E                    7985 	.db	14
      000664 33                    7986 	.uleb128	51
      000665 01                    7987 	.db	1
      000666 00 00 85 AD           7988 	.dw	0,(Smain$main$473)
      00066A 0E                    7989 	.db	14
      00066B 35                    7990 	.uleb128	53
      00066C 01                    7991 	.db	1
      00066D 00 00 85 B2           7992 	.dw	0,(Smain$main$474)
      000671 0E                    7993 	.db	14
      000672 31                    7994 	.uleb128	49
      000673 01                    7995 	.db	1
      000674 00 00 85 B5           7996 	.dw	0,(Smain$main$476)
      000678 0E                    7997 	.db	14
      000679 33                    7998 	.uleb128	51
      00067A 01                    7999 	.db	1
      00067B 00 00 85 B9           8000 	.dw	0,(Smain$main$477)
      00067F 0E                    8001 	.db	14
      000680 31                    8002 	.uleb128	49
      000681 01                    8003 	.db	1
      000682 00 00 85 BB           8004 	.dw	0,(Smain$main$479)
      000686 0E                    8005 	.db	14
      000687 32                    8006 	.uleb128	50
      000688 01                    8007 	.db	1
      000689 00 00 85 BD           8008 	.dw	0,(Smain$main$480)
      00068D 0E                    8009 	.db	14
      00068E 33                    8010 	.uleb128	51
      00068F 01                    8011 	.db	1
      000690 00 00 85 C1           8012 	.dw	0,(Smain$main$481)
      000694 0E                    8013 	.db	14
      000695 31                    8014 	.uleb128	49
      000696 01                    8015 	.db	1
      000697 00 00 85 C4           8016 	.dw	0,(Smain$main$483)
      00069B 0E                    8017 	.db	14
      00069C 33                    8018 	.uleb128	51
      00069D 01                    8019 	.db	1
      00069E 00 00 85 C6           8020 	.dw	0,(Smain$main$484)
      0006A2 0E                    8021 	.db	14
      0006A3 34                    8022 	.uleb128	52
      0006A4 01                    8023 	.db	1
      0006A5 00 00 85 C8           8024 	.dw	0,(Smain$main$485)
      0006A9 0E                    8025 	.db	14
      0006AA 35                    8026 	.uleb128	53
      0006AB 01                    8027 	.db	1
      0006AC 00 00 85 CD           8028 	.dw	0,(Smain$main$486)
      0006B0 0E                    8029 	.db	14
      0006B1 37                    8030 	.uleb128	55
      0006B2 01                    8031 	.db	1
      0006B3 00 00 85 D2           8032 	.dw	0,(Smain$main$487)
      0006B7 0E                    8033 	.db	14
      0006B8 31                    8034 	.uleb128	49
      0006B9 01                    8035 	.db	1
      0006BA 00 00 85 D5           8036 	.dw	0,(Smain$main$489)
      0006BE 0E                    8037 	.db	14
      0006BF 33                    8038 	.uleb128	51
      0006C0 01                    8039 	.db	1
      0006C1 00 00 85 D9           8040 	.dw	0,(Smain$main$490)
      0006C5 0E                    8041 	.db	14
      0006C6 31                    8042 	.uleb128	49
      0006C7 01                    8043 	.db	1
      0006C8 00 00 85 E2           8044 	.dw	0,(Smain$main$495)
      0006CC 0E                    8045 	.db	14
      0006CD 32                    8046 	.uleb128	50
      0006CE 01                    8047 	.db	1
      0006CF 00 00 85 E4           8048 	.dw	0,(Smain$main$496)
      0006D3 0E                    8049 	.db	14
      0006D4 33                    8050 	.uleb128	51
      0006D5 01                    8051 	.db	1
      0006D6 00 00 85 E8           8052 	.dw	0,(Smain$main$497)
      0006DA 0E                    8053 	.db	14
      0006DB 31                    8054 	.uleb128	49
      0006DC 01                    8055 	.db	1
      0006DD 00 00 85 EA           8056 	.dw	0,(Smain$main$499)
      0006E1 0E                    8057 	.db	14
      0006E2 32                    8058 	.uleb128	50
      0006E3 01                    8059 	.db	1
      0006E4 00 00 85 EC           8060 	.dw	0,(Smain$main$500)
      0006E8 0E                    8061 	.db	14
      0006E9 33                    8062 	.uleb128	51
      0006EA 01                    8063 	.db	1
      0006EB 00 00 85 F1           8064 	.dw	0,(Smain$main$501)
      0006EF 0E                    8065 	.db	14
      0006F0 35                    8066 	.uleb128	53
      0006F1 01                    8067 	.db	1
      0006F2 00 00 85 F6           8068 	.dw	0,(Smain$main$502)
      0006F6 0E                    8069 	.db	14
      0006F7 31                    8070 	.uleb128	49
      0006F8 01                    8071 	.db	1
      0006F9 00 00 85 F9           8072 	.dw	0,(Smain$main$504)
      0006FD 0E                    8073 	.db	14
      0006FE 33                    8074 	.uleb128	51
      0006FF 01                    8075 	.db	1
      000700 00 00 85 FD           8076 	.dw	0,(Smain$main$505)
      000704 0E                    8077 	.db	14
      000705 31                    8078 	.uleb128	49
      000706 01                    8079 	.db	1
      000707 00 00 85 FF           8080 	.dw	0,(Smain$main$507)
      00070B 0E                    8081 	.db	14
      00070C 32                    8082 	.uleb128	50
      00070D 01                    8083 	.db	1
      00070E 00 00 86 01           8084 	.dw	0,(Smain$main$508)
      000712 0E                    8085 	.db	14
      000713 33                    8086 	.uleb128	51
      000714 01                    8087 	.db	1
      000715 00 00 86 05           8088 	.dw	0,(Smain$main$509)
      000719 0E                    8089 	.db	14
      00071A 31                    8090 	.uleb128	49
      00071B 01                    8091 	.db	1
      00071C 00 00 86 07           8092 	.dw	0,(Smain$main$511)
      000720 0E                    8093 	.db	14
      000721 32                    8094 	.uleb128	50
      000722 01                    8095 	.db	1
      000723 00 00 86 09           8096 	.dw	0,(Smain$main$512)
      000727 0E                    8097 	.db	14
      000728 33                    8098 	.uleb128	51
      000729 01                    8099 	.db	1
      00072A 00 00 86 0E           8100 	.dw	0,(Smain$main$513)
      00072E 0E                    8101 	.db	14
      00072F 35                    8102 	.uleb128	53
      000730 01                    8103 	.db	1
      000731 00 00 86 13           8104 	.dw	0,(Smain$main$514)
      000735 0E                    8105 	.db	14
      000736 31                    8106 	.uleb128	49
      000737 01                    8107 	.db	1
      000738 00 00 86 16           8108 	.dw	0,(Smain$main$516)
      00073C 0E                    8109 	.db	14
      00073D 33                    8110 	.uleb128	51
      00073E 01                    8111 	.db	1
      00073F 00 00 86 1A           8112 	.dw	0,(Smain$main$517)
      000743 0E                    8113 	.db	14
      000744 31                    8114 	.uleb128	49
      000745 01                    8115 	.db	1
      000746 00 00 86 23           8116 	.dw	0,(Smain$main$522)
      00074A 0E                    8117 	.db	14
      00074B 32                    8118 	.uleb128	50
      00074C 01                    8119 	.db	1
      00074D 00 00 86 25           8120 	.dw	0,(Smain$main$523)
      000751 0E                    8121 	.db	14
      000752 33                    8122 	.uleb128	51
      000753 01                    8123 	.db	1
      000754 00 00 86 29           8124 	.dw	0,(Smain$main$524)
      000758 0E                    8125 	.db	14
      000759 31                    8126 	.uleb128	49
      00075A 01                    8127 	.db	1
      00075B 00 00 86 2B           8128 	.dw	0,(Smain$main$526)
      00075F 0E                    8129 	.db	14
      000760 32                    8130 	.uleb128	50
      000761 01                    8131 	.db	1
      000762 00 00 86 2D           8132 	.dw	0,(Smain$main$527)
      000766 0E                    8133 	.db	14
      000767 33                    8134 	.uleb128	51
      000768 01                    8135 	.db	1
      000769 00 00 86 32           8136 	.dw	0,(Smain$main$528)
      00076D 0E                    8137 	.db	14
      00076E 35                    8138 	.uleb128	53
      00076F 01                    8139 	.db	1
      000770 00 00 86 37           8140 	.dw	0,(Smain$main$529)
      000774 0E                    8141 	.db	14
      000775 31                    8142 	.uleb128	49
      000776 01                    8143 	.db	1
      000777 00 00 86 3A           8144 	.dw	0,(Smain$main$531)
      00077B 0E                    8145 	.db	14
      00077C 33                    8146 	.uleb128	51
      00077D 01                    8147 	.db	1
      00077E 00 00 86 3E           8148 	.dw	0,(Smain$main$532)
      000782 0E                    8149 	.db	14
      000783 31                    8150 	.uleb128	49
      000784 01                    8151 	.db	1
      000785 00 00 86 45           8152 	.dw	0,(Smain$main$535)
      000789 0E                    8153 	.db	14
      00078A 32                    8154 	.uleb128	50
      00078B 01                    8155 	.db	1
      00078C 00 00 86 47           8156 	.dw	0,(Smain$main$536)
      000790 0E                    8157 	.db	14
      000791 33                    8158 	.uleb128	51
      000792 01                    8159 	.db	1
      000793 00 00 86 4B           8160 	.dw	0,(Smain$main$537)
      000797 0E                    8161 	.db	14
      000798 31                    8162 	.uleb128	49
      000799 01                    8163 	.db	1
      00079A 00 00 86 4D           8164 	.dw	0,(Smain$main$539)
      00079E 0E                    8165 	.db	14
      00079F 32                    8166 	.uleb128	50
      0007A0 01                    8167 	.db	1
      0007A1 00 00 86 4F           8168 	.dw	0,(Smain$main$540)
      0007A5 0E                    8169 	.db	14
      0007A6 33                    8170 	.uleb128	51
      0007A7 01                    8171 	.db	1
      0007A8 00 00 86 54           8172 	.dw	0,(Smain$main$541)
      0007AC 0E                    8173 	.db	14
      0007AD 35                    8174 	.uleb128	53
      0007AE 01                    8175 	.db	1
      0007AF 00 00 86 59           8176 	.dw	0,(Smain$main$542)
      0007B3 0E                    8177 	.db	14
      0007B4 31                    8178 	.uleb128	49
      0007B5 01                    8179 	.db	1
      0007B6 00 00 86 5C           8180 	.dw	0,(Smain$main$544)
      0007BA 0E                    8181 	.db	14
      0007BB 33                    8182 	.uleb128	51
      0007BC 01                    8183 	.db	1
      0007BD 00 00 86 60           8184 	.dw	0,(Smain$main$545)
      0007C1 0E                    8185 	.db	14
      0007C2 31                    8186 	.uleb128	49
      0007C3 01                    8187 	.db	1
      0007C4 00 00 86 62           8188 	.dw	0,(Smain$main$547)
      0007C8 0E                    8189 	.db	14
      0007C9 32                    8190 	.uleb128	50
      0007CA 01                    8191 	.db	1
      0007CB 00 00 86 64           8192 	.dw	0,(Smain$main$548)
      0007CF 0E                    8193 	.db	14
      0007D0 33                    8194 	.uleb128	51
      0007D1 01                    8195 	.db	1
      0007D2 00 00 86 68           8196 	.dw	0,(Smain$main$549)
      0007D6 0E                    8197 	.db	14
      0007D7 31                    8198 	.uleb128	49
      0007D8 01                    8199 	.db	1
      0007D9 00 00 86 6B           8200 	.dw	0,(Smain$main$551)
      0007DD 0E                    8201 	.db	14
      0007DE 33                    8202 	.uleb128	51
      0007DF 01                    8203 	.db	1
      0007E0 00 00 86 6D           8204 	.dw	0,(Smain$main$552)
      0007E4 0E                    8205 	.db	14
      0007E5 34                    8206 	.uleb128	52
      0007E6 01                    8207 	.db	1
      0007E7 00 00 86 6F           8208 	.dw	0,(Smain$main$553)
      0007EB 0E                    8209 	.db	14
      0007EC 35                    8210 	.uleb128	53
      0007ED 01                    8211 	.db	1
      0007EE 00 00 86 74           8212 	.dw	0,(Smain$main$554)
      0007F2 0E                    8213 	.db	14
      0007F3 37                    8214 	.uleb128	55
      0007F4 01                    8215 	.db	1
      0007F5 00 00 86 79           8216 	.dw	0,(Smain$main$555)
      0007F9 0E                    8217 	.db	14
      0007FA 31                    8218 	.uleb128	49
      0007FB 01                    8219 	.db	1
      0007FC 00 00 86 7C           8220 	.dw	0,(Smain$main$557)
      000800 0E                    8221 	.db	14
      000801 33                    8222 	.uleb128	51
      000802 01                    8223 	.db	1
      000803 00 00 86 80           8224 	.dw	0,(Smain$main$558)
      000807 0E                    8225 	.db	14
      000808 31                    8226 	.uleb128	49
      000809 01                    8227 	.db	1
      00080A 00 00 86 82           8228 	.dw	0,(Smain$main$560)
      00080E 0E                    8229 	.db	14
      00080F 32                    8230 	.uleb128	50
      000810 01                    8231 	.db	1
      000811 00 00 86 84           8232 	.dw	0,(Smain$main$561)
      000815 0E                    8233 	.db	14
      000816 33                    8234 	.uleb128	51
      000817 01                    8235 	.db	1
      000818 00 00 86 86           8236 	.dw	0,(Smain$main$562)
      00081C 0E                    8237 	.db	14
      00081D 34                    8238 	.uleb128	52
      00081E 01                    8239 	.db	1
      00081F 00 00 86 8B           8240 	.dw	0,(Smain$main$563)
      000823 0E                    8241 	.db	14
      000824 31                    8242 	.uleb128	49
      000825 01                    8243 	.db	1
      000826 00 00 86 8D           8244 	.dw	0,(Smain$main$565)
      00082A 0E                    8245 	.db	14
      00082B 32                    8246 	.uleb128	50
      00082C 01                    8247 	.db	1
      00082D 00 00 86 8F           8248 	.dw	0,(Smain$main$566)
      000831 0E                    8249 	.db	14
      000832 33                    8250 	.uleb128	51
      000833 01                    8251 	.db	1
      000834 00 00 86 93           8252 	.dw	0,(Smain$main$567)
      000838 0E                    8253 	.db	14
      000839 31                    8254 	.uleb128	49
      00083A 01                    8255 	.db	1
      00083B 00 00 86 95           8256 	.dw	0,(Smain$main$569)
      00083F 0E                    8257 	.db	14
      000840 32                    8258 	.uleb128	50
      000841 01                    8259 	.db	1
      000842 00 00 86 97           8260 	.dw	0,(Smain$main$570)
      000846 0E                    8261 	.db	14
      000847 33                    8262 	.uleb128	51
      000848 01                    8263 	.db	1
      000849 00 00 86 99           8264 	.dw	0,(Smain$main$571)
      00084D 0E                    8265 	.db	14
      00084E 34                    8266 	.uleb128	52
      00084F 01                    8267 	.db	1
      000850 00 00 86 9E           8268 	.dw	0,(Smain$main$572)
      000854 0E                    8269 	.db	14
      000855 31                    8270 	.uleb128	49
      000856 01                    8271 	.db	1
      000857 00 00 86 AE           8272 	.dw	0,(Smain$main$579)
      00085B 0E                    8273 	.db	14
      00085C 32                    8274 	.uleb128	50
      00085D 01                    8275 	.db	1
      00085E 00 00 86 B0           8276 	.dw	0,(Smain$main$580)
      000862 0E                    8277 	.db	14
      000863 33                    8278 	.uleb128	51
      000864 01                    8279 	.db	1
      000865 00 00 86 B4           8280 	.dw	0,(Smain$main$581)
      000869 0E                    8281 	.db	14
      00086A 31                    8282 	.uleb128	49
      00086B 01                    8283 	.db	1
      00086C 00 00 86 B6           8284 	.dw	0,(Smain$main$583)
      000870 0E                    8285 	.db	14
      000871 32                    8286 	.uleb128	50
      000872 01                    8287 	.db	1
      000873 00 00 86 B8           8288 	.dw	0,(Smain$main$584)
      000877 0E                    8289 	.db	14
      000878 33                    8290 	.uleb128	51
      000879 01                    8291 	.db	1
      00087A 00 00 86 BD           8292 	.dw	0,(Smain$main$585)
      00087E 0E                    8293 	.db	14
      00087F 35                    8294 	.uleb128	53
      000880 01                    8295 	.db	1
      000881 00 00 86 C2           8296 	.dw	0,(Smain$main$586)
      000885 0E                    8297 	.db	14
      000886 31                    8298 	.uleb128	49
      000887 01                    8299 	.db	1
      000888 00 00 86 C5           8300 	.dw	0,(Smain$main$588)
      00088C 0E                    8301 	.db	14
      00088D 33                    8302 	.uleb128	51
      00088E 01                    8303 	.db	1
      00088F 00 00 86 C9           8304 	.dw	0,(Smain$main$589)
      000893 0E                    8305 	.db	14
      000894 31                    8306 	.uleb128	49
      000895 01                    8307 	.db	1
      000896 00 00 86 D0           8308 	.dw	0,(Smain$main$592)
      00089A 0E                    8309 	.db	14
      00089B 32                    8310 	.uleb128	50
      00089C 01                    8311 	.db	1
      00089D 00 00 86 D2           8312 	.dw	0,(Smain$main$593)
      0008A1 0E                    8313 	.db	14
      0008A2 33                    8314 	.uleb128	51
      0008A3 01                    8315 	.db	1
      0008A4 00 00 86 D6           8316 	.dw	0,(Smain$main$594)
      0008A8 0E                    8317 	.db	14
      0008A9 31                    8318 	.uleb128	49
      0008AA 01                    8319 	.db	1
      0008AB 00 00 86 D8           8320 	.dw	0,(Smain$main$596)
      0008AF 0E                    8321 	.db	14
      0008B0 32                    8322 	.uleb128	50
      0008B1 01                    8323 	.db	1
      0008B2 00 00 86 DA           8324 	.dw	0,(Smain$main$597)
      0008B6 0E                    8325 	.db	14
      0008B7 33                    8326 	.uleb128	51
      0008B8 01                    8327 	.db	1
      0008B9 00 00 86 DF           8328 	.dw	0,(Smain$main$598)
      0008BD 0E                    8329 	.db	14
      0008BE 35                    8330 	.uleb128	53
      0008BF 01                    8331 	.db	1
      0008C0 00 00 86 E4           8332 	.dw	0,(Smain$main$599)
      0008C4 0E                    8333 	.db	14
      0008C5 31                    8334 	.uleb128	49
      0008C6 01                    8335 	.db	1
      0008C7 00 00 86 E7           8336 	.dw	0,(Smain$main$601)
      0008CB 0E                    8337 	.db	14
      0008CC 33                    8338 	.uleb128	51
      0008CD 01                    8339 	.db	1
      0008CE 00 00 86 EB           8340 	.dw	0,(Smain$main$602)
      0008D2 0E                    8341 	.db	14
      0008D3 31                    8342 	.uleb128	49
      0008D4 01                    8343 	.db	1
      0008D5 00 00 86 ED           8344 	.dw	0,(Smain$main$604)
      0008D9 0E                    8345 	.db	14
      0008DA 32                    8346 	.uleb128	50
      0008DB 01                    8347 	.db	1
      0008DC 00 00 86 EF           8348 	.dw	0,(Smain$main$605)
      0008E0 0E                    8349 	.db	14
      0008E1 33                    8350 	.uleb128	51
      0008E2 01                    8351 	.db	1
      0008E3 00 00 86 F3           8352 	.dw	0,(Smain$main$606)
      0008E7 0E                    8353 	.db	14
      0008E8 31                    8354 	.uleb128	49
      0008E9 01                    8355 	.db	1
      0008EA 00 00 86 F6           8356 	.dw	0,(Smain$main$608)
      0008EE 0E                    8357 	.db	14
      0008EF 33                    8358 	.uleb128	51
      0008F0 01                    8359 	.db	1
      0008F1 00 00 86 F8           8360 	.dw	0,(Smain$main$609)
      0008F5 0E                    8361 	.db	14
      0008F6 34                    8362 	.uleb128	52
      0008F7 01                    8363 	.db	1
      0008F8 00 00 86 FA           8364 	.dw	0,(Smain$main$610)
      0008FC 0E                    8365 	.db	14
      0008FD 35                    8366 	.uleb128	53
      0008FE 01                    8367 	.db	1
      0008FF 00 00 86 FF           8368 	.dw	0,(Smain$main$611)
      000903 0E                    8369 	.db	14
      000904 37                    8370 	.uleb128	55
      000905 01                    8371 	.db	1
      000906 00 00 87 04           8372 	.dw	0,(Smain$main$612)
      00090A 0E                    8373 	.db	14
      00090B 31                    8374 	.uleb128	49
      00090C 01                    8375 	.db	1
      00090D 00 00 87 07           8376 	.dw	0,(Smain$main$614)
      000911 0E                    8377 	.db	14
      000912 33                    8378 	.uleb128	51
      000913 01                    8379 	.db	1
      000914 00 00 87 0B           8380 	.dw	0,(Smain$main$615)
      000918 0E                    8381 	.db	14
      000919 31                    8382 	.uleb128	49
      00091A 01                    8383 	.db	1
      00091B 00 00 87 0D           8384 	.dw	0,(Smain$main$617)
      00091F 0E                    8385 	.db	14
      000920 32                    8386 	.uleb128	50
      000921 01                    8387 	.db	1
      000922 00 00 87 0F           8388 	.dw	0,(Smain$main$618)
      000926 0E                    8389 	.db	14
      000927 33                    8390 	.uleb128	51
      000928 01                    8391 	.db	1
      000929 00 00 87 11           8392 	.dw	0,(Smain$main$619)
      00092D 0E                    8393 	.db	14
      00092E 34                    8394 	.uleb128	52
      00092F 01                    8395 	.db	1
      000930 00 00 87 16           8396 	.dw	0,(Smain$main$620)
      000934 0E                    8397 	.db	14
      000935 31                    8398 	.uleb128	49
      000936 01                    8399 	.db	1
      000937 00 00 87 18           8400 	.dw	0,(Smain$main$622)
      00093B 0E                    8401 	.db	14
      00093C 32                    8402 	.uleb128	50
      00093D 01                    8403 	.db	1
      00093E 00 00 87 1A           8404 	.dw	0,(Smain$main$623)
      000942 0E                    8405 	.db	14
      000943 33                    8406 	.uleb128	51
      000944 01                    8407 	.db	1
      000945 00 00 87 1E           8408 	.dw	0,(Smain$main$624)
      000949 0E                    8409 	.db	14
      00094A 31                    8410 	.uleb128	49
      00094B 01                    8411 	.db	1
      00094C 00 00 87 20           8412 	.dw	0,(Smain$main$626)
      000950 0E                    8413 	.db	14
      000951 32                    8414 	.uleb128	50
      000952 01                    8415 	.db	1
      000953 00 00 87 22           8416 	.dw	0,(Smain$main$627)
      000957 0E                    8417 	.db	14
      000958 33                    8418 	.uleb128	51
      000959 01                    8419 	.db	1
      00095A 00 00 87 24           8420 	.dw	0,(Smain$main$628)
      00095E 0E                    8421 	.db	14
      00095F 34                    8422 	.uleb128	52
      000960 01                    8423 	.db	1
      000961 00 00 87 29           8424 	.dw	0,(Smain$main$629)
      000965 0E                    8425 	.db	14
      000966 31                    8426 	.uleb128	49
      000967 01                    8427 	.db	1
      000968 00 00 87 32           8428 	.dw	0,(Smain$main$634)
      00096C 0E                    8429 	.db	14
      00096D 32                    8430 	.uleb128	50
      00096E 01                    8431 	.db	1
      00096F 00 00 87 34           8432 	.dw	0,(Smain$main$635)
      000973 0E                    8433 	.db	14
      000974 33                    8434 	.uleb128	51
      000975 01                    8435 	.db	1
      000976 00 00 87 38           8436 	.dw	0,(Smain$main$636)
      00097A 0E                    8437 	.db	14
      00097B 31                    8438 	.uleb128	49
      00097C 01                    8439 	.db	1
      00097D 00 00 87 3A           8440 	.dw	0,(Smain$main$638)
      000981 0E                    8441 	.db	14
      000982 32                    8442 	.uleb128	50
      000983 01                    8443 	.db	1
      000984 00 00 87 3C           8444 	.dw	0,(Smain$main$639)
      000988 0E                    8445 	.db	14
      000989 33                    8446 	.uleb128	51
      00098A 01                    8447 	.db	1
      00098B 00 00 87 41           8448 	.dw	0,(Smain$main$640)
      00098F 0E                    8449 	.db	14
      000990 35                    8450 	.uleb128	53
      000991 01                    8451 	.db	1
      000992 00 00 87 46           8452 	.dw	0,(Smain$main$641)
      000996 0E                    8453 	.db	14
      000997 31                    8454 	.uleb128	49
      000998 01                    8455 	.db	1
      000999 00 00 87 49           8456 	.dw	0,(Smain$main$643)
      00099D 0E                    8457 	.db	14
      00099E 33                    8458 	.uleb128	51
      00099F 01                    8459 	.db	1
      0009A0 00 00 87 4D           8460 	.dw	0,(Smain$main$644)
      0009A4 0E                    8461 	.db	14
      0009A5 31                    8462 	.uleb128	49
      0009A6 01                    8463 	.db	1
      0009A7 00 00 87 54           8464 	.dw	0,(Smain$main$647)
      0009AB 0E                    8465 	.db	14
      0009AC 32                    8466 	.uleb128	50
      0009AD 01                    8467 	.db	1
      0009AE 00 00 87 56           8468 	.dw	0,(Smain$main$648)
      0009B2 0E                    8469 	.db	14
      0009B3 33                    8470 	.uleb128	51
      0009B4 01                    8471 	.db	1
      0009B5 00 00 87 5A           8472 	.dw	0,(Smain$main$649)
      0009B9 0E                    8473 	.db	14
      0009BA 31                    8474 	.uleb128	49
      0009BB 01                    8475 	.db	1
      0009BC 00 00 87 5C           8476 	.dw	0,(Smain$main$651)
      0009C0 0E                    8477 	.db	14
      0009C1 32                    8478 	.uleb128	50
      0009C2 01                    8479 	.db	1
      0009C3 00 00 87 5E           8480 	.dw	0,(Smain$main$652)
      0009C7 0E                    8481 	.db	14
      0009C8 33                    8482 	.uleb128	51
      0009C9 01                    8483 	.db	1
      0009CA 00 00 87 63           8484 	.dw	0,(Smain$main$653)
      0009CE 0E                    8485 	.db	14
      0009CF 35                    8486 	.uleb128	53
      0009D0 01                    8487 	.db	1
      0009D1 00 00 87 68           8488 	.dw	0,(Smain$main$654)
      0009D5 0E                    8489 	.db	14
      0009D6 31                    8490 	.uleb128	49
      0009D7 01                    8491 	.db	1
      0009D8 00 00 87 6B           8492 	.dw	0,(Smain$main$656)
      0009DC 0E                    8493 	.db	14
      0009DD 33                    8494 	.uleb128	51
      0009DE 01                    8495 	.db	1
      0009DF 00 00 87 6F           8496 	.dw	0,(Smain$main$657)
      0009E3 0E                    8497 	.db	14
      0009E4 31                    8498 	.uleb128	49
      0009E5 01                    8499 	.db	1
      0009E6 00 00 87 71           8500 	.dw	0,(Smain$main$659)
      0009EA 0E                    8501 	.db	14
      0009EB 32                    8502 	.uleb128	50
      0009EC 01                    8503 	.db	1
      0009ED 00 00 87 73           8504 	.dw	0,(Smain$main$660)
      0009F1 0E                    8505 	.db	14
      0009F2 33                    8506 	.uleb128	51
      0009F3 01                    8507 	.db	1
      0009F4 00 00 87 77           8508 	.dw	0,(Smain$main$661)
      0009F8 0E                    8509 	.db	14
      0009F9 31                    8510 	.uleb128	49
      0009FA 01                    8511 	.db	1
      0009FB 00 00 87 7A           8512 	.dw	0,(Smain$main$663)
      0009FF 0E                    8513 	.db	14
      000A00 33                    8514 	.uleb128	51
      000A01 01                    8515 	.db	1
      000A02 00 00 87 7C           8516 	.dw	0,(Smain$main$664)
      000A06 0E                    8517 	.db	14
      000A07 34                    8518 	.uleb128	52
      000A08 01                    8519 	.db	1
      000A09 00 00 87 7E           8520 	.dw	0,(Smain$main$665)
      000A0D 0E                    8521 	.db	14
      000A0E 35                    8522 	.uleb128	53
      000A0F 01                    8523 	.db	1
      000A10 00 00 87 83           8524 	.dw	0,(Smain$main$666)
      000A14 0E                    8525 	.db	14
      000A15 37                    8526 	.uleb128	55
      000A16 01                    8527 	.db	1
      000A17 00 00 87 88           8528 	.dw	0,(Smain$main$667)
      000A1B 0E                    8529 	.db	14
      000A1C 31                    8530 	.uleb128	49
      000A1D 01                    8531 	.db	1
      000A1E 00 00 87 8B           8532 	.dw	0,(Smain$main$669)
      000A22 0E                    8533 	.db	14
      000A23 33                    8534 	.uleb128	51
      000A24 01                    8535 	.db	1
      000A25 00 00 87 8F           8536 	.dw	0,(Smain$main$670)
      000A29 0E                    8537 	.db	14
      000A2A 31                    8538 	.uleb128	49
      000A2B 01                    8539 	.db	1
      000A2C 00 00 87 98           8540 	.dw	0,(Smain$main$675)
      000A30 0E                    8541 	.db	14
      000A31 32                    8542 	.uleb128	50
      000A32 01                    8543 	.db	1
      000A33 00 00 87 9A           8544 	.dw	0,(Smain$main$676)
      000A37 0E                    8545 	.db	14
      000A38 33                    8546 	.uleb128	51
      000A39 01                    8547 	.db	1
      000A3A 00 00 87 9E           8548 	.dw	0,(Smain$main$677)
      000A3E 0E                    8549 	.db	14
      000A3F 31                    8550 	.uleb128	49
      000A40 01                    8551 	.db	1
      000A41 00 00 87 A0           8552 	.dw	0,(Smain$main$679)
      000A45 0E                    8553 	.db	14
      000A46 32                    8554 	.uleb128	50
      000A47 01                    8555 	.db	1
      000A48 00 00 87 A2           8556 	.dw	0,(Smain$main$680)
      000A4C 0E                    8557 	.db	14
      000A4D 33                    8558 	.uleb128	51
      000A4E 01                    8559 	.db	1
      000A4F 00 00 87 A7           8560 	.dw	0,(Smain$main$681)
      000A53 0E                    8561 	.db	14
      000A54 35                    8562 	.uleb128	53
      000A55 01                    8563 	.db	1
      000A56 00 00 87 AC           8564 	.dw	0,(Smain$main$682)
      000A5A 0E                    8565 	.db	14
      000A5B 31                    8566 	.uleb128	49
      000A5C 01                    8567 	.db	1
      000A5D 00 00 87 AF           8568 	.dw	0,(Smain$main$684)
      000A61 0E                    8569 	.db	14
      000A62 33                    8570 	.uleb128	51
      000A63 01                    8571 	.db	1
      000A64 00 00 87 B3           8572 	.dw	0,(Smain$main$685)
      000A68 0E                    8573 	.db	14
      000A69 31                    8574 	.uleb128	49
      000A6A 01                    8575 	.db	1
      000A6B 00 00 87 B5           8576 	.dw	0,(Smain$main$687)
      000A6F 0E                    8577 	.db	14
      000A70 32                    8578 	.uleb128	50
      000A71 01                    8579 	.db	1
      000A72 00 00 87 B7           8580 	.dw	0,(Smain$main$688)
      000A76 0E                    8581 	.db	14
      000A77 33                    8582 	.uleb128	51
      000A78 01                    8583 	.db	1
      000A79 00 00 87 BB           8584 	.dw	0,(Smain$main$689)
      000A7D 0E                    8585 	.db	14
      000A7E 31                    8586 	.uleb128	49
      000A7F 01                    8587 	.db	1
      000A80 00 00 87 BD           8588 	.dw	0,(Smain$main$691)
      000A84 0E                    8589 	.db	14
      000A85 32                    8590 	.uleb128	50
      000A86 01                    8591 	.db	1
      000A87 00 00 87 BF           8592 	.dw	0,(Smain$main$692)
      000A8B 0E                    8593 	.db	14
      000A8C 33                    8594 	.uleb128	51
      000A8D 01                    8595 	.db	1
      000A8E 00 00 87 C4           8596 	.dw	0,(Smain$main$693)
      000A92 0E                    8597 	.db	14
      000A93 35                    8598 	.uleb128	53
      000A94 01                    8599 	.db	1
      000A95 00 00 87 C9           8600 	.dw	0,(Smain$main$694)
      000A99 0E                    8601 	.db	14
      000A9A 31                    8602 	.uleb128	49
      000A9B 01                    8603 	.db	1
      000A9C 00 00 87 CC           8604 	.dw	0,(Smain$main$696)
      000AA0 0E                    8605 	.db	14
      000AA1 33                    8606 	.uleb128	51
      000AA2 01                    8607 	.db	1
      000AA3 00 00 87 D0           8608 	.dw	0,(Smain$main$697)
      000AA7 0E                    8609 	.db	14
      000AA8 31                    8610 	.uleb128	49
      000AA9 01                    8611 	.db	1
      000AAA 00 00 87 D5           8612 	.dw	0,(Smain$main$702)
      000AAE 0E                    8613 	.db	14
      000AAF 32                    8614 	.uleb128	50
      000AB0 01                    8615 	.db	1
      000AB1 00 00 87 D7           8616 	.dw	0,(Smain$main$703)
      000AB5 0E                    8617 	.db	14
      000AB6 33                    8618 	.uleb128	51
      000AB7 01                    8619 	.db	1
      000AB8 00 00 87 DB           8620 	.dw	0,(Smain$main$704)
      000ABC 0E                    8621 	.db	14
      000ABD 31                    8622 	.uleb128	49
      000ABE 01                    8623 	.db	1
      000ABF 00 00 87 DD           8624 	.dw	0,(Smain$main$706)
      000AC3 0E                    8625 	.db	14
      000AC4 32                    8626 	.uleb128	50
      000AC5 01                    8627 	.db	1
      000AC6 00 00 87 DF           8628 	.dw	0,(Smain$main$707)
      000ACA 0E                    8629 	.db	14
      000ACB 33                    8630 	.uleb128	51
      000ACC 01                    8631 	.db	1
      000ACD 00 00 87 E3           8632 	.dw	0,(Smain$main$708)
      000AD1 0E                    8633 	.db	14
      000AD2 31                    8634 	.uleb128	49
      000AD3 01                    8635 	.db	1
      000AD4 00 00 87 E5           8636 	.dw	0,(Smain$main$710)
      000AD8 0E                    8637 	.db	14
      000AD9 32                    8638 	.uleb128	50
      000ADA 01                    8639 	.db	1
      000ADB 00 00 87 E7           8640 	.dw	0,(Smain$main$711)
      000ADF 0E                    8641 	.db	14
      000AE0 33                    8642 	.uleb128	51
      000AE1 01                    8643 	.db	1
      000AE2 00 00 87 EB           8644 	.dw	0,(Smain$main$712)
      000AE6 0E                    8645 	.db	14
      000AE7 31                    8646 	.uleb128	49
      000AE8 01                    8647 	.db	1
      000AE9 00 00 87 F0           8648 	.dw	0,(Smain$main$715)
      000AED 0E                    8649 	.db	14
      000AEE 02                    8650 	.uleb128	2
                                   8651 
                                   8652 	.area .debug_frame (NOLOAD)
      000AEF 00 00                 8653 	.dw	0
      000AF1 00 0E                 8654 	.dw	Ldebug_CIE1_end-Ldebug_CIE1_start
      000AF3                       8655 Ldebug_CIE1_start:
      000AF3 FF FF                 8656 	.dw	0xffff
      000AF5 FF FF                 8657 	.dw	0xffff
      000AF7 01                    8658 	.db	1
      000AF8 00                    8659 	.db	0
      000AF9 01                    8660 	.uleb128	1
      000AFA 7F                    8661 	.sleb128	-1
      000AFB 09                    8662 	.db	9
      000AFC 0C                    8663 	.db	12
      000AFD 08                    8664 	.uleb128	8
      000AFE 02                    8665 	.uleb128	2
      000AFF 89                    8666 	.db	137
      000B00 01                    8667 	.uleb128	1
      000B01                       8668 Ldebug_CIE1_end:
      000B01 00 00 00 C9           8669 	.dw	0,201
      000B05 00 00 0A EF           8670 	.dw	0,(Ldebug_CIE1_start-4)
      000B09 00 00 81 8D           8671 	.dw	0,(Smain$setup$78)	;initial loc
      000B0D 00 00 00 52           8672 	.dw	0,Smain$setup$119-Smain$setup$78
      000B11 01                    8673 	.db	1
      000B12 00 00 81 8D           8674 	.dw	0,(Smain$setup$78)
      000B16 0E                    8675 	.db	14
      000B17 02                    8676 	.uleb128	2
      000B18 01                    8677 	.db	1
      000B19 00 00 81 8F           8678 	.dw	0,(Smain$setup$80)
      000B1D 0E                    8679 	.db	14
      000B1E 03                    8680 	.uleb128	3
      000B1F 01                    8681 	.db	1
      000B20 00 00 81 93           8682 	.dw	0,(Smain$setup$81)
      000B24 0E                    8683 	.db	14
      000B25 02                    8684 	.uleb128	2
      000B26 01                    8685 	.db	1
      000B27 00 00 81 95           8686 	.dw	0,(Smain$setup$83)
      000B2B 0E                    8687 	.db	14
      000B2C 03                    8688 	.uleb128	3
      000B2D 01                    8689 	.db	1
      000B2E 00 00 81 97           8690 	.dw	0,(Smain$setup$84)
      000B32 0E                    8691 	.db	14
      000B33 04                    8692 	.uleb128	4
      000B34 01                    8693 	.db	1
      000B35 00 00 81 99           8694 	.dw	0,(Smain$setup$85)
      000B39 0E                    8695 	.db	14
      000B3A 05                    8696 	.uleb128	5
      000B3B 01                    8697 	.db	1
      000B3C 00 00 81 9B           8698 	.dw	0,(Smain$setup$86)
      000B40 0E                    8699 	.db	14
      000B41 06                    8700 	.uleb128	6
      000B42 01                    8701 	.db	1
      000B43 00 00 81 A0           8702 	.dw	0,(Smain$setup$87)
      000B47 0E                    8703 	.db	14
      000B48 02                    8704 	.uleb128	2
      000B49 01                    8705 	.db	1
      000B4A 00 00 81 A2           8706 	.dw	0,(Smain$setup$89)
      000B4E 0E                    8707 	.db	14
      000B4F 03                    8708 	.uleb128	3
      000B50 01                    8709 	.db	1
      000B51 00 00 81 A4           8710 	.dw	0,(Smain$setup$90)
      000B55 0E                    8711 	.db	14
      000B56 04                    8712 	.uleb128	4
      000B57 01                    8713 	.db	1
      000B58 00 00 81 A6           8714 	.dw	0,(Smain$setup$91)
      000B5C 0E                    8715 	.db	14
      000B5D 05                    8716 	.uleb128	5
      000B5E 01                    8717 	.db	1
      000B5F 00 00 81 A8           8718 	.dw	0,(Smain$setup$92)
      000B63 0E                    8719 	.db	14
      000B64 06                    8720 	.uleb128	6
      000B65 01                    8721 	.db	1
      000B66 00 00 81 AD           8722 	.dw	0,(Smain$setup$93)
      000B6A 0E                    8723 	.db	14
      000B6B 02                    8724 	.uleb128	2
      000B6C 01                    8725 	.db	1
      000B6D 00 00 81 B5           8726 	.dw	0,(Smain$setup$97)
      000B71 0E                    8727 	.db	14
      000B72 03                    8728 	.uleb128	3
      000B73 01                    8729 	.db	1
      000B74 00 00 81 B7           8730 	.dw	0,(Smain$setup$98)
      000B78 0E                    8731 	.db	14
      000B79 04                    8732 	.uleb128	4
      000B7A 01                    8733 	.db	1
      000B7B 00 00 81 BB           8734 	.dw	0,(Smain$setup$99)
      000B7F 0E                    8735 	.db	14
      000B80 02                    8736 	.uleb128	2
      000B81 01                    8737 	.db	1
      000B82 00 00 81 BD           8738 	.dw	0,(Smain$setup$101)
      000B86 0E                    8739 	.db	14
      000B87 03                    8740 	.uleb128	3
      000B88 01                    8741 	.db	1
      000B89 00 00 81 BF           8742 	.dw	0,(Smain$setup$102)
      000B8D 0E                    8743 	.db	14
      000B8E 04                    8744 	.uleb128	4
      000B8F 01                    8745 	.db	1
      000B90 00 00 81 C3           8746 	.dw	0,(Smain$setup$103)
      000B94 0E                    8747 	.db	14
      000B95 02                    8748 	.uleb128	2
      000B96 01                    8749 	.db	1
      000B97 00 00 81 C5           8750 	.dw	0,(Smain$setup$105)
      000B9B 0E                    8751 	.db	14
      000B9C 03                    8752 	.uleb128	3
      000B9D 01                    8753 	.db	1
      000B9E 00 00 81 C9           8754 	.dw	0,(Smain$setup$106)
      000BA2 0E                    8755 	.db	14
      000BA3 02                    8756 	.uleb128	2
      000BA4 01                    8757 	.db	1
      000BA5 00 00 81 CB           8758 	.dw	0,(Smain$setup$108)
      000BA9 0E                    8759 	.db	14
      000BAA 03                    8760 	.uleb128	3
      000BAB 01                    8761 	.db	1
      000BAC 00 00 81 CF           8762 	.dw	0,(Smain$setup$109)
      000BB0 0E                    8763 	.db	14
      000BB1 02                    8764 	.uleb128	2
      000BB2 01                    8765 	.db	1
      000BB3 00 00 81 D1           8766 	.dw	0,(Smain$setup$111)
      000BB7 0E                    8767 	.db	14
      000BB8 03                    8768 	.uleb128	3
      000BB9 01                    8769 	.db	1
      000BBA 00 00 81 D5           8770 	.dw	0,(Smain$setup$112)
      000BBE 0E                    8771 	.db	14
      000BBF 02                    8772 	.uleb128	2
      000BC0 01                    8773 	.db	1
      000BC1 00 00 81 D7           8774 	.dw	0,(Smain$setup$114)
      000BC5 0E                    8775 	.db	14
      000BC6 03                    8776 	.uleb128	3
      000BC7 01                    8777 	.db	1
      000BC8 00 00 81 DB           8778 	.dw	0,(Smain$setup$115)
      000BCC 0E                    8779 	.db	14
      000BCD 02                    8780 	.uleb128	2
                                   8781 
                                   8782 	.area .debug_frame (NOLOAD)
      000BCE 00 00                 8783 	.dw	0
      000BD0 00 0E                 8784 	.dw	Ldebug_CIE2_end-Ldebug_CIE2_start
      000BD2                       8785 Ldebug_CIE2_start:
      000BD2 FF FF                 8786 	.dw	0xffff
      000BD4 FF FF                 8787 	.dw	0xffff
      000BD6 01                    8788 	.db	1
      000BD7 00                    8789 	.db	0
      000BD8 01                    8790 	.uleb128	1
      000BD9 7F                    8791 	.sleb128	-1
      000BDA 09                    8792 	.db	9
      000BDB 0C                    8793 	.db	12
      000BDC 08                    8794 	.uleb128	8
      000BDD 02                    8795 	.uleb128	2
      000BDE 89                    8796 	.db	137
      000BDF 01                    8797 	.uleb128	1
      000BE0                       8798 Ldebug_CIE2_end:
      000BE0 00 00 00 21           8799 	.dw	0,33
      000BE4 00 00 0B CE           8800 	.dw	0,(Ldebug_CIE2_start-4)
      000BE8 00 00 81 42           8801 	.dw	0,(Smain$delay_ms$44)	;initial loc
      000BEC 00 00 00 4B           8802 	.dw	0,Smain$delay_ms$76-Smain$delay_ms$44
      000BF0 01                    8803 	.db	1
      000BF1 00 00 81 42           8804 	.dw	0,(Smain$delay_ms$44)
      000BF5 0E                    8805 	.db	14
      000BF6 02                    8806 	.uleb128	2
      000BF7 01                    8807 	.db	1
      000BF8 00 00 81 43           8808 	.dw	0,(Smain$delay_ms$45)
      000BFC 0E                    8809 	.db	14
      000BFD 04                    8810 	.uleb128	4
      000BFE 01                    8811 	.db	1
      000BFF 00 00 81 8C           8812 	.dw	0,(Smain$delay_ms$74)
      000C03 0E                    8813 	.db	14
      000C04 02                    8814 	.uleb128	2
                                   8815 
                                   8816 	.area .debug_frame (NOLOAD)
      000C05 00 00                 8817 	.dw	0
      000C07 00 0E                 8818 	.dw	Ldebug_CIE3_end-Ldebug_CIE3_start
      000C09                       8819 Ldebug_CIE3_start:
      000C09 FF FF                 8820 	.dw	0xffff
      000C0B FF FF                 8821 	.dw	0xffff
      000C0D 01                    8822 	.db	1
      000C0E 00                    8823 	.db	0
      000C0F 01                    8824 	.uleb128	1
      000C10 7F                    8825 	.sleb128	-1
      000C11 09                    8826 	.db	9
      000C12 0C                    8827 	.db	12
      000C13 08                    8828 	.uleb128	8
      000C14 02                    8829 	.uleb128	2
      000C15 89                    8830 	.db	137
      000C16 01                    8831 	.uleb128	1
      000C17                       8832 Ldebug_CIE3_end:
      000C17 00 00 00 75           8833 	.dw	0,117
      000C1B 00 00 0C 05           8834 	.dw	0,(Ldebug_CIE3_start-4)
      000C1F 00 00 81 0A           8835 	.dw	0,(Smain$_delay_us$13)	;initial loc
      000C23 00 00 00 38           8836 	.dw	0,Smain$_delay_us$42-Smain$_delay_us$13
      000C27 01                    8837 	.db	1
      000C28 00 00 81 0A           8838 	.dw	0,(Smain$_delay_us$13)
      000C2C 0E                    8839 	.db	14
      000C2D 02                    8840 	.uleb128	2
      000C2E 01                    8841 	.db	1
      000C2F 00 00 81 0F           8842 	.dw	0,(Smain$_delay_us$15)
      000C33 0E                    8843 	.db	14
      000C34 04                    8844 	.uleb128	4
      000C35 01                    8845 	.db	1
      000C36 00 00 81 10           8846 	.dw	0,(Smain$_delay_us$16)
      000C3A 0E                    8847 	.db	14
      000C3B 06                    8848 	.uleb128	6
      000C3C 01                    8849 	.db	1
      000C3D 00 00 81 12           8850 	.dw	0,(Smain$_delay_us$17)
      000C41 0E                    8851 	.db	14
      000C42 07                    8852 	.uleb128	7
      000C43 01                    8853 	.db	1
      000C44 00 00 81 14           8854 	.dw	0,(Smain$_delay_us$18)
      000C48 0E                    8855 	.db	14
      000C49 08                    8856 	.uleb128	8
      000C4A 01                    8857 	.db	1
      000C4B 00 00 81 16           8858 	.dw	0,(Smain$_delay_us$19)
      000C4F 0E                    8859 	.db	14
      000C50 09                    8860 	.uleb128	9
      000C51 01                    8861 	.db	1
      000C52 00 00 81 18           8862 	.dw	0,(Smain$_delay_us$20)
      000C56 0E                    8863 	.db	14
      000C57 0A                    8864 	.uleb128	10
      000C58 01                    8865 	.db	1
      000C59 00 00 81 1D           8866 	.dw	0,(Smain$_delay_us$21)
      000C5D 0E                    8867 	.db	14
      000C5E 02                    8868 	.uleb128	2
      000C5F 01                    8869 	.db	1
      000C60 00 00 81 1F           8870 	.dw	0,(Smain$_delay_us$23)
      000C64 0E                    8871 	.db	14
      000C65 03                    8872 	.uleb128	3
      000C66 01                    8873 	.db	1
      000C67 00 00 81 21           8874 	.dw	0,(Smain$_delay_us$24)
      000C6B 0E                    8875 	.db	14
      000C6C 04                    8876 	.uleb128	4
      000C6D 01                    8877 	.db	1
      000C6E 00 00 81 23           8878 	.dw	0,(Smain$_delay_us$25)
      000C72 0E                    8879 	.db	14
      000C73 05                    8880 	.uleb128	5
      000C74 01                    8881 	.db	1
      000C75 00 00 81 25           8882 	.dw	0,(Smain$_delay_us$26)
      000C79 0E                    8883 	.db	14
      000C7A 06                    8884 	.uleb128	6
      000C7B 01                    8885 	.db	1
      000C7C 00 00 81 26           8886 	.dw	0,(Smain$_delay_us$27)
      000C80 0E                    8887 	.db	14
      000C81 08                    8888 	.uleb128	8
      000C82 01                    8889 	.db	1
      000C83 00 00 81 28           8890 	.dw	0,(Smain$_delay_us$28)
      000C87 0E                    8891 	.db	14
      000C88 0A                    8892 	.uleb128	10
      000C89 01                    8893 	.db	1
      000C8A 00 00 81 2D           8894 	.dw	0,(Smain$_delay_us$29)
      000C8E 0E                    8895 	.db	14
      000C8F 02                    8896 	.uleb128	2
                                   8897 
                                   8898 	.area .debug_frame (NOLOAD)
      000C90 00 00                 8899 	.dw	0
      000C92 00 0E                 8900 	.dw	Ldebug_CIE4_end-Ldebug_CIE4_start
      000C94                       8901 Ldebug_CIE4_start:
      000C94 FF FF                 8902 	.dw	0xffff
      000C96 FF FF                 8903 	.dw	0xffff
      000C98 01                    8904 	.db	1
      000C99 00                    8905 	.db	0
      000C9A 01                    8906 	.uleb128	1
      000C9B 7F                    8907 	.sleb128	-1
      000C9C 09                    8908 	.db	9
      000C9D 0C                    8909 	.db	12
      000C9E 08                    8910 	.uleb128	8
      000C9F 02                    8911 	.uleb128	2
      000CA0 89                    8912 	.db	137
      000CA1 01                    8913 	.uleb128	1
      000CA2                       8914 Ldebug_CIE4_end:
      000CA2 00 00 00 13           8915 	.dw	0,19
      000CA6 00 00 0C 90           8916 	.dw	0,(Ldebug_CIE4_start-4)
      000CAA 00 00 80 FD           8917 	.dw	0,(Smain$_delay_cycl$1)	;initial loc
      000CAE 00 00 00 0D           8918 	.dw	0,Smain$_delay_cycl$11-Smain$_delay_cycl$1
      000CB2 01                    8919 	.db	1
      000CB3 00 00 80 FD           8920 	.dw	0,(Smain$_delay_cycl$1)
      000CB7 0E                    8921 	.db	14
      000CB8 02                    8922 	.uleb128	2
